gpasm-1.5.2 #0 (Dec 27 2019) build/sdcc-16f87   27.12.2019  16:44:07        PAGE  1


LOC    OBJECT CODE    LINE  SOURCE TEXT
  VALUE

                      00001 ;--------------------------------------------------------
                      00002 ; File Created by SDCC : free open source ANSI-C Compiler
                      00003 ; Version 3.9.0 #11195 (Linux)
                      00004 ;--------------------------------------------------------
                      00005 ; PIC port for the 14-bit core
                      00006 ;--------------------------------------------------------
                      00007 ;       .file   "onewire.c"
                      00008         list    p=16f876a
                      00009         radix dec
                      00010         include "p16f876a.inc"
                      00001         LIST
                      00002 
                      00003 ;==========================================================================
                      00004 ; Build date : Oct 21 2015
                      00005 ;  MPASM PIC16F876A processor include
                      00006 ; 
                      00007 ;  (c) Copyright 1999-2015 Microchip Technology, All rights reserved
                      00008 ;==========================================================================
                      00009 
                      00525         LIST
                      00011 ;--------------------------------------------------------
                      00012 ; external declarations
                      00013 ;--------------------------------------------------------
  0000                00014         extern  ___uchar2fs
  0000                00015         extern  ___schar2fs
  0000                00016         extern  ___uint2fs
  0000                00017         extern  ___sint2fs
  0000                00018         extern  ___ulong2fs
  0000                00019         extern  ___slong2fs
  0000                00020         extern  ___fs2uchar
  0000                00021         extern  ___fs2schar
  0000                00022         extern  ___fs2uint
  0000                00023         extern  ___fs2sint
  0000                00024         extern  ___fs2ulong
  0000                00025         extern  ___fs2slong
  0000                00026         extern  ___fsadd
  0000                00027         extern  ___fssub
  0000                00028         extern  ___fsmul
  0000                00029         extern  ___fsdiv
  0000                00030         extern  ___fslt
  0000                00031         extern  ___fseq
  0000                00032         extern  ___fsneq
  0000                00033         extern  ___fsgt
  0000                00034         extern  _cycle_eater
  0000                00035         extern  _delay_ms
  0000                00036         extern  _delay_us
  0000                00037         extern  _Delay100TCYx
  0000                00038         extern  _Delay10KTCYx
  0000                00039         extern  _Delay10TCYx
  0000                00040         extern  _Delay1KTCYx
  0000                00041         extern  _STATUSbits
  0000                00042         extern  _PORTAbits
  0000                00043         extern  _PORTBbits
gpasm-1.5.2 #0 (Dec 27 2019) build/sdcc-16f87   27.12.2019  16:44:07        PAGE  2


LOC    OBJECT CODE    LINE  SOURCE TEXT
  VALUE

  0000                00044         extern  _PORTCbits
  0000                00045         extern  _INTCONbits
  0000                00046         extern  _PIR1bits
  0000                00047         extern  _PIR2bits
  0000                00048         extern  _T1CONbits
  0000                00049         extern  _T2CONbits
  0000                00050         extern  _SSPCONbits
  0000                00051         extern  _CCP1CONbits
  0000                00052         extern  _RCSTAbits
  0000                00053         extern  _CCP2CONbits
  0000                00054         extern  _ADCON0bits
  0000                00055         extern  _OPTION_REGbits
  0000                00056         extern  _TRISAbits
  0000                00057         extern  _TRISBbits
  0000                00058         extern  _TRISCbits
  0000                00059         extern  _PIE1bits
  0000                00060         extern  _PIE2bits
  0000                00061         extern  _PCONbits
  0000                00062         extern  _SSPCON2bits
  0000                00063         extern  _SSPSTATbits
  0000                00064         extern  _TXSTAbits
  0000                00065         extern  _CMCONbits
  0000                00066         extern  _CVRCONbits
  0000                00067         extern  _ADCON1bits
  0000                00068         extern  _EECON1bits
  0000                00069         extern  _dvar
  0000                00070         extern  _INDF
  0000                00071         extern  _TMR0
  0000                00072         extern  _PCL
  0000                00073         extern  _STATUS
  0000                00074         extern  _FSR
  0000                00075         extern  _PORTA
  0000                00076         extern  _PORTB
  0000                00077         extern  _PORTC
  0000                00078         extern  _PCLATH
  0000                00079         extern  _INTCON
  0000                00080         extern  _PIR1
  0000                00081         extern  _PIR2
  0000                00082         extern  _TMR1
  0000                00083         extern  _TMR1L
  0000                00084         extern  _TMR1H
  0000                00085         extern  _T1CON
  0000                00086         extern  _TMR2
  0000                00087         extern  _T2CON
  0000                00088         extern  _SSPBUF
  0000                00089         extern  _SSPCON
  0000                00090         extern  _CCPR1
  0000                00091         extern  _CCPR1L
  0000                00092         extern  _CCPR1H
  0000                00093         extern  _CCP1CON
  0000                00094         extern  _RCSTA
  0000                00095         extern  _TXREG
  0000                00096         extern  _RCREG
gpasm-1.5.2 #0 (Dec 27 2019) build/sdcc-16f87   27.12.2019  16:44:07        PAGE  3


LOC    OBJECT CODE    LINE  SOURCE TEXT
  VALUE

  0000                00097         extern  _CCPR2
  0000                00098         extern  _CCPR2L
  0000                00099         extern  _CCPR2H
  0000                00100         extern  _CCP2CON
  0000                00101         extern  _ADRESH
  0000                00102         extern  _ADCON0
  0000                00103         extern  _OPTION_REG
  0000                00104         extern  _TRISA
  0000                00105         extern  _TRISB
  0000                00106         extern  _TRISC
  0000                00107         extern  _PIE1
  0000                00108         extern  _PIE2
  0000                00109         extern  _PCON
  0000                00110         extern  _SSPCON2
  0000                00111         extern  _PR2
  0000                00112         extern  _SSPADD
  0000                00113         extern  _SSPSTAT
  0000                00114         extern  _TXSTA
  0000                00115         extern  _SPBRG
  0000                00116         extern  _CMCON
  0000                00117         extern  _CVRCON
  0000                00118         extern  _ADRESL
  0000                00119         extern  _ADCON1
  0000                00120         extern  _EEDATA
  0000                00121         extern  _EEADR
  0000                00122         extern  _EEDATH
  0000                00123         extern  _EEADRH
  0000                00124         extern  _EECON1
  0000                00125         extern  _EECON2
  0000                00126         extern  __gptrget1
  0000                00127         extern  __mulchar
                      00128 
  0000                00129         extern PSAVE
  0000                00130         extern SSAVE
  0000                00131         extern WSAVE
  0000                00132         extern STK12
  0000                00133         extern STK11
  0000                00134         extern STK10
  0000                00135         extern STK09
  0000                00136         extern STK08
  0000                00137         extern STK07
  0000                00138         extern STK06
  0000                00139         extern STK05
  0000                00140         extern STK04
  0000                00141         extern STK03
  0000                00142         extern STK02
  0000                00143         extern STK01
  0000                00144         extern STK00
                      00145 ;--------------------------------------------------------
                      00146 ; global declarations
                      00147 ;--------------------------------------------------------
  0000                00148         global  _ow_access
  0000                00149         global  _ow_search
gpasm-1.5.2 #0 (Dec 27 2019) build/sdcc-16f87   27.12.2019  16:44:07        PAGE  4


LOC    OBJECT CODE    LINE  SOURCE TEXT
  VALUE

  0000                00150         global  _ow_next
  0000                00151         global  _ow_crc
  0000                00152         global  _ow_write_byte
  0000                00153         global  _ow_read_byte
  0000                00154         global  _ow_reset
  0000                00155         global  _ow_read_bit
  0000                00156         global  _ow_write_bit
  0000                00157         global  _ow_first
  0000                00158         global  _ow_crctable
                      00159 
                      00160 ;--------------------------------------------------------
                      00161 ; global definitions
                      00162 ;--------------------------------------------------------
                      00163 ;--------------------------------------------------------
                      00164 ; absolute symbol definitions
                      00165 ;--------------------------------------------------------
                      00166 ;--------------------------------------------------------
                      00167 ; compiler-defined variables
                      00168 ;--------------------------------------------------------
                      00169 UDL_onewire_0   udata
0000                  00170 r0x106C res     1
0001                  00171 r0x106D res     1
0002                  00172 r0x1077 res     1
0003                  00173 r0x108F res     1
0004                  00174 r0x1090 res     1
0005                  00175 r0x1091 res     1
0006                  00176 r0x1092 res     1
0007                  00177 r0x106E res     1
0008                  00178 r0x106F res     1
0009                  00179 r0x1070 res     1
000A                  00180 r0x1078 res     1
000B                  00181 r0x1079 res     1
000C                  00182 r0x107C res     1
000D                  00183 r0x107D res     1
000E                  00184 r0x107E res     1
000F                  00185 r0x107F res     1
0010                  00186 r0x1080 res     1
0011                  00187 r0x1081 res     1
0012                  00188 r0x1082 res     1
0013                  00189 r0x1083 res     1
0014                  00190 r0x1085 res     1
0015                  00191 r0x1084 res     1
0016                  00192 r0x1086 res     1
0017                  00193 r0x1089 res     1
0018                  00194 r0x108A res     1
0019                  00195 r0x108B res     1
001A                  00196 r0x108C res     1
001B                  00197 r0x108D res     1
001C                  00198 r0x108E res     1
001D                  00199 r0x1071 res     1
001E                  00200 r0x1072 res     1
001F                  00201 r0x1073 res     1
0020                  00202 r0x1074 res     1
gpasm-1.5.2 #0 (Dec 27 2019) build/sdcc-16f87   27.12.2019  16:44:07        PAGE  5


LOC    OBJECT CODE    LINE  SOURCE TEXT
  VALUE

0021                  00203 r0x1075 res     1
0022                  00204 r0x1076 res     1
0023                  00205 _ow_dowcrc      res     1
0024                  00206 _RomBytes       res     8
002C                  00207 _numROMs        res     1
002D                  00208 _FoundROM       res     96
                      00209 ;--------------------------------------------------------
                      00210 ; initialized data
                      00211 ;--------------------------------------------------------
                      00212 
                      00213 ID_onewire_0    idata
0000                  00214 _lastDiscrep
0000   00             00215         db      0x00
                      00216 
                      00217 
                      00218 ID_onewire_1    idata
0000                  00219 _doneFlag
0000   00             00220         db      0x00
                      00221 
                      00222 
                      00223 ID_onewire_2    code
0000                  00224 _ow_crctable
0000   3400           00225         retlw 0x00
0001   345E           00226         retlw 0x5e
0002   34BC           00227         retlw 0xbc
0003   34E2           00228         retlw 0xe2
0004   3461           00229         retlw 0x61
0005   343F           00230         retlw 0x3f
0006   34DD           00231         retlw 0xdd
0007   3483           00232         retlw 0x83
0008   34C2           00233         retlw 0xc2
0009   349C           00234         retlw 0x9c
000A   347E           00235         retlw 0x7e
000B   3420           00236         retlw 0x20
000C   34A3           00237         retlw 0xa3
000D   34FD           00238         retlw 0xfd
000E   341F           00239         retlw 0x1f
000F   3441           00240         retlw 0x41
0010   349D           00241         retlw 0x9d
0011   34C3           00242         retlw 0xc3
0012   3421           00243         retlw 0x21
0013   347F           00244         retlw 0x7f
0014   34FC           00245         retlw 0xfc
0015   34A2           00246         retlw 0xa2
0016   3440           00247         retlw 0x40
0017   341E           00248         retlw 0x1e
0018   345F           00249         retlw 0x5f
0019   3401           00250         retlw 0x01
001A   34E3           00251         retlw 0xe3
001B   34BD           00252         retlw 0xbd
001C   343E           00253         retlw 0x3e
001D   3460           00254         retlw 0x60
001E   3482           00255         retlw 0x82
gpasm-1.5.2 #0 (Dec 27 2019) build/sdcc-16f87   27.12.2019  16:44:07        PAGE  6


LOC    OBJECT CODE    LINE  SOURCE TEXT
  VALUE

001F   34DC           00256         retlw 0xdc
0020   3423           00257         retlw 0x23
0021   347D           00258         retlw 0x7d
0022   349F           00259         retlw 0x9f
0023   34C1           00260         retlw 0xc1
0024   3442           00261         retlw 0x42
0025   341C           00262         retlw 0x1c
0026   34FE           00263         retlw 0xfe
0027   34A0           00264         retlw 0xa0
0028   34E1           00265         retlw 0xe1
0029   34BF           00266         retlw 0xbf
002A   345D           00267         retlw 0x5d
002B   3403           00268         retlw 0x03
002C   3480           00269         retlw 0x80
002D   34DE           00270         retlw 0xde
002E   343C           00271         retlw 0x3c
002F   3462           00272         retlw 0x62
0030   34BE           00273         retlw 0xbe
0031   34E0           00274         retlw 0xe0
0032   3402           00275         retlw 0x02
0033   345C           00276         retlw 0x5c
0034   34DF           00277         retlw 0xdf
0035   3481           00278         retlw 0x81
0036   3463           00279         retlw 0x63
0037   343D           00280         retlw 0x3d
0038   347C           00281         retlw 0x7c
0039   3422           00282         retlw 0x22
003A   34C0           00283         retlw 0xc0
003B   349E           00284         retlw 0x9e
003C   341D           00285         retlw 0x1d
003D   3443           00286         retlw 0x43
003E   34A1           00287         retlw 0xa1
003F   34FF           00288         retlw 0xff
0040   3446           00289         retlw 0x46
0041   3418           00290         retlw 0x18
0042   34FA           00291         retlw 0xfa
0043   34A4           00292         retlw 0xa4
0044   3427           00293         retlw 0x27
0045   3479           00294         retlw 0x79
0046   349B           00295         retlw 0x9b
0047   34C5           00296         retlw 0xc5
0048   3484           00297         retlw 0x84
0049   34DA           00298         retlw 0xda
004A   3438           00299         retlw 0x38
004B   3466           00300         retlw 0x66
004C   34E5           00301         retlw 0xe5
004D   34BB           00302         retlw 0xbb
004E   3459           00303         retlw 0x59
004F   3407           00304         retlw 0x07
0050   34DB           00305         retlw 0xdb
0051   3485           00306         retlw 0x85
0052   3467           00307         retlw 0x67
0053   3439           00308         retlw 0x39
gpasm-1.5.2 #0 (Dec 27 2019) build/sdcc-16f87   27.12.2019  16:44:07        PAGE  7


LOC    OBJECT CODE    LINE  SOURCE TEXT
  VALUE

0054   34BA           00309         retlw 0xba
0055   34E4           00310         retlw 0xe4
0056   3406           00311         retlw 0x06
0057   3458           00312         retlw 0x58
0058   3419           00313         retlw 0x19
0059   3447           00314         retlw 0x47
005A   34A5           00315         retlw 0xa5
005B   34FB           00316         retlw 0xfb
005C   3478           00317         retlw 0x78
005D   3426           00318         retlw 0x26
005E   34C4           00319         retlw 0xc4
005F   349A           00320         retlw 0x9a
0060   3465           00321         retlw 0x65
0061   343B           00322         retlw 0x3b
0062   34D9           00323         retlw 0xd9
0063   3487           00324         retlw 0x87
0064   3404           00325         retlw 0x04
0065   345A           00326         retlw 0x5a
0066   34B8           00327         retlw 0xb8
0067   34E6           00328         retlw 0xe6
0068   34A7           00329         retlw 0xa7
0069   34F9           00330         retlw 0xf9
006A   341B           00331         retlw 0x1b
006B   3445           00332         retlw 0x45
006C   34C6           00333         retlw 0xc6
006D   3498           00334         retlw 0x98
006E   347A           00335         retlw 0x7a
006F   3424           00336         retlw 0x24
0070   34F8           00337         retlw 0xf8
0071   34A6           00338         retlw 0xa6
0072   3444           00339         retlw 0x44
0073   341A           00340         retlw 0x1a
0074   3499           00341         retlw 0x99
0075   34C7           00342         retlw 0xc7
0076   3425           00343         retlw 0x25
0077   347B           00344         retlw 0x7b
0078   343A           00345         retlw 0x3a
0079   3464           00346         retlw 0x64
007A   3486           00347         retlw 0x86
007B   34D8           00348         retlw 0xd8
007C   345B           00349         retlw 0x5b
007D   3405           00350         retlw 0x05
007E   34E7           00351         retlw 0xe7
007F   34B9           00352         retlw 0xb9
0080   348C           00353         retlw 0x8c
0081   34D2           00354         retlw 0xd2
0082   3430           00355         retlw 0x30
0083   346E           00356         retlw 0x6e
0084   34ED           00357         retlw 0xed
0085   34B3           00358         retlw 0xb3
0086   3451           00359         retlw 0x51
0087   340F           00360         retlw 0x0f
0088   344E           00361         retlw 0x4e
gpasm-1.5.2 #0 (Dec 27 2019) build/sdcc-16f87   27.12.2019  16:44:07        PAGE  8


LOC    OBJECT CODE    LINE  SOURCE TEXT
  VALUE

0089   3410           00362         retlw 0x10
008A   34F2           00363         retlw 0xf2
008B   34AC           00364         retlw 0xac
008C   342F           00365         retlw 0x2f
008D   3471           00366         retlw 0x71
008E   3493           00367         retlw 0x93
008F   34CD           00368         retlw 0xcd
0090   3411           00369         retlw 0x11
0091   344F           00370         retlw 0x4f
0092   34AD           00371         retlw 0xad
0093   34F3           00372         retlw 0xf3
0094   3470           00373         retlw 0x70
0095   342E           00374         retlw 0x2e
0096   34CC           00375         retlw 0xcc
0097   3492           00376         retlw 0x92
0098   34D3           00377         retlw 0xd3
0099   348D           00378         retlw 0x8d
009A   346F           00379         retlw 0x6f
009B   3431           00380         retlw 0x31
009C   34B2           00381         retlw 0xb2
009D   34EC           00382         retlw 0xec
009E   340E           00383         retlw 0x0e
009F   3450           00384         retlw 0x50
00A0   34AF           00385         retlw 0xaf
00A1   34F1           00386         retlw 0xf1
00A2   3413           00387         retlw 0x13
00A3   344D           00388         retlw 0x4d
00A4   34CE           00389         retlw 0xce
00A5   3490           00390         retlw 0x90
00A6   3472           00391         retlw 0x72
00A7   342C           00392         retlw 0x2c
00A8   346D           00393         retlw 0x6d
00A9   3433           00394         retlw 0x33
00AA   34D1           00395         retlw 0xd1
00AB   348F           00396         retlw 0x8f
00AC   340C           00397         retlw 0x0c
00AD   3452           00398         retlw 0x52
00AE   34B0           00399         retlw 0xb0
00AF   34EE           00400         retlw 0xee
00B0   3432           00401         retlw 0x32
00B1   346C           00402         retlw 0x6c
00B2   348E           00403         retlw 0x8e
00B3   34D0           00404         retlw 0xd0
00B4   3453           00405         retlw 0x53
00B5   340D           00406         retlw 0x0d
00B6   34EF           00407         retlw 0xef
00B7   34B1           00408         retlw 0xb1
00B8   34F0           00409         retlw 0xf0
00B9   34AE           00410         retlw 0xae
00BA   344C           00411         retlw 0x4c
00BB   3412           00412         retlw 0x12
00BC   3491           00413         retlw 0x91
00BD   34CF           00414         retlw 0xcf
gpasm-1.5.2 #0 (Dec 27 2019) build/sdcc-16f87   27.12.2019  16:44:07        PAGE  9


LOC    OBJECT CODE    LINE  SOURCE TEXT
  VALUE

00BE   342D           00415         retlw 0x2d
00BF   3473           00416         retlw 0x73
00C0   34CA           00417         retlw 0xca
00C1   3494           00418         retlw 0x94
00C2   3476           00419         retlw 0x76
00C3   3428           00420         retlw 0x28
00C4   34AB           00421         retlw 0xab
00C5   34F5           00422         retlw 0xf5
00C6   3417           00423         retlw 0x17
00C7   3449           00424         retlw 0x49
00C8   3408           00425         retlw 0x08
00C9   3456           00426         retlw 0x56
00CA   34B4           00427         retlw 0xb4
00CB   34EA           00428         retlw 0xea
00CC   3469           00429         retlw 0x69
00CD   3437           00430         retlw 0x37
00CE   34D5           00431         retlw 0xd5
00CF   348B           00432         retlw 0x8b
00D0   3457           00433         retlw 0x57
00D1   3409           00434         retlw 0x09
00D2   34EB           00435         retlw 0xeb
00D3   34B5           00436         retlw 0xb5
00D4   3436           00437         retlw 0x36
00D5   3468           00438         retlw 0x68
00D6   348A           00439         retlw 0x8a
00D7   34D4           00440         retlw 0xd4
00D8   3495           00441         retlw 0x95
00D9   34CB           00442         retlw 0xcb
00DA   3429           00443         retlw 0x29
00DB   3477           00444         retlw 0x77
00DC   34F4           00445         retlw 0xf4
00DD   34AA           00446         retlw 0xaa
00DE   3448           00447         retlw 0x48
00DF   3416           00448         retlw 0x16
00E0   34E9           00449         retlw 0xe9
00E1   34B7           00450         retlw 0xb7
00E2   3455           00451         retlw 0x55
00E3   340B           00452         retlw 0x0b
00E4   3488           00453         retlw 0x88
00E5   34D6           00454         retlw 0xd6
00E6   3434           00455         retlw 0x34
00E7   346A           00456         retlw 0x6a
00E8   342B           00457         retlw 0x2b
00E9   3475           00458         retlw 0x75
00EA   3497           00459         retlw 0x97
00EB   34C9           00460         retlw 0xc9
00EC   344A           00461         retlw 0x4a
00ED   3414           00462         retlw 0x14
00EE   34F6           00463         retlw 0xf6
00EF   34A8           00464         retlw 0xa8
00F0   3474           00465         retlw 0x74
00F1   342A           00466         retlw 0x2a
00F2   34C8           00467         retlw 0xc8
gpasm-1.5.2 #0 (Dec 27 2019) build/sdcc-16f87   27.12.2019  16:44:07        PAGE 10


LOC    OBJECT CODE    LINE  SOURCE TEXT
  VALUE

00F3   3496           00468         retlw 0x96
00F4   3415           00469         retlw 0x15
00F5   344B           00470         retlw 0x4b
00F6   34A9           00471         retlw 0xa9
00F7   34F7           00472         retlw 0xf7
00F8   34B6           00473         retlw 0xb6
00F9   34E8           00474         retlw 0xe8
00FA   340A           00475         retlw 0x0a
00FB   3454           00476         retlw 0x54
00FC   34D7           00477         retlw 0xd7
00FD   3489           00478         retlw 0x89
00FE   346B           00479         retlw 0x6b
00FF   3435           00480         retlw 0x35
                      00481 
                      00482 ;--------------------------------------------------------
                      00483 ; overlayable items in internal ram 
                      00484 ;--------------------------------------------------------
                      00485 ;       udata_ovr
                      00486 ;--------------------------------------------------------
                      00487 ; code
                      00488 ;--------------------------------------------------------
                      00489 code_onewire    code
                      00490 ;***
                      00491 ;  pBlock Stats: dbName = C
                      00492 ;***
                      00493 ;has an exit
                      00494 ;functions called:
                      00495 ;   _ow_reset
                      00496 ;   _ow_write_byte
                      00497 ;   __mulchar
                      00498 ;   _ow_write_byte
                      00499 ;   _ow_reset
                      00500 ;   _ow_write_byte
                      00501 ;   __mulchar
                      00502 ;   _ow_write_byte
                      00503 ;7 compiler assigned registers:
                      00504 ;   r0x1071
                      00505 ;   r0x1072
                      00506 ;   STK00
                      00507 ;   r0x1073
                      00508 ;   r0x1074
                      00509 ;   r0x1075
                      00510 ;   r0x1076
                      00511 ;; Starting pCode block
                      00512 S_onewire__ow_access    code
0000                  00513 _ow_access:
                      00514 ; 2 exit points
                      00515 ;       .line   296; "onewire.c"        ow_access(uint8_t actNumROM) {
0000   0??? 0???      00516         BANKSEL r0x1071
0002   00??           00517         MOVWF   r0x1071
                      00518 ;       .line   299; "onewire.c"        if(ow_reset())
0003   0??? 0???      00519         PAGESEL _ow_reset
0005   2???           00520         CALL    _ow_reset
gpasm-1.5.2 #0 (Dec 27 2019) build/sdcc-16f87   27.12.2019  16:44:07        PAGE 11


LOC    OBJECT CODE    LINE  SOURCE TEXT
  VALUE

0006   0??? 0???      00521         PAGESEL $
0008   0??? 0???      00522         BANKSEL r0x1072
000A   00??           00523         MOVWF   r0x1072
000B   08??           00524         MOVF    r0x1072,W
000C   1903           00525         BTFSC   STATUS,2
000D   2???           00526         GOTO    _00293_DS_
                      00527 ;       .line   300; "onewire.c"        return 0; // 0 if device present
000E   3000           00528         MOVLW   0x00
000F   2???           00529         GOTO    _00297_DS_
0010                  00530 _00293_DS_:
                      00531 ;       .line   302; "onewire.c"        ow_write_byte(0x55, 0); // Match ROM
0010   3000           00532         MOVLW   0x00
0011   00??           00533         MOVWF   STK00
0012   3055           00534         MOVLW   0x55
0013   0??? 0???      00535         PAGESEL _ow_write_byte
0015   2???           00536         CALL    _ow_write_byte
0016   0??? 0???      00537         PAGESEL $
                      00538 ;       .line   304; "onewire.c"        for(i = 0; i < 8; i++) ow_write_byte(FoundROM[actNumROM][i], 0);
                             // Send ROM code
0018   3008           00539         MOVLW   0x08
0019   00??           00540         MOVWF   STK00
001A   0??? 0???      00541         BANKSEL r0x1071
001C   08??           00542         MOVF    r0x1071,W
001D   0??? 0???      00543         PAGESEL __mulchar
001F   2???           00544         CALL    __mulchar
0020   0??? 0???      00545         PAGESEL $
0022   0??? 0???      00546         BANKSEL r0x1072
0024   00??           00547         MOVWF   r0x1072
0025   01??           00548         CLRF    r0x1073
0026   08??           00549         MOVF    r0x1072,W
0027   3E??           00550         ADDLW   (_FoundROM + 0)
0028   00??           00551         MOVWF   r0x1072
0029   30??           00552         MOVLW   high (_FoundROM + 0)
002A   00??           00553         MOVWF   r0x1071
002B   3000           00554         MOVLW   0x00
002C   1803           00555         BTFSC   STATUS,0
002D   0F??           00556         INCFSZ  r0x1073,W
002E   07??           00557         ADDWF   r0x1071,F
002F   01??           00558         CLRF    r0x1073
0030                  00559 _00295_DS_:
0030   0??? 0???      00560         BANKSEL r0x1073
0032   08??           00561         MOVF    r0x1073,W
0033   07??           00562         ADDWF   r0x1072,W
0034   00??           00563         MOVWF   r0x1074
0035   08??           00564         MOVF    r0x1071,W
0036   1803           00565         BTFSC   STATUS,0
0037   3E01           00566         ADDLW   0x01
0038   00??           00567         MOVWF   r0x1075
0039   08??           00568         MOVF    r0x1074,W
003A   1283 1303      00569         BANKSEL FSR
003C   0084           00570         MOVWF   FSR
003D   1383           00571         BCF     STATUS,7
003E   0??? 0???      00572         BANKSEL r0x1075
gpasm-1.5.2 #0 (Dec 27 2019) build/sdcc-16f87   27.12.2019  16:44:07        PAGE 12


LOC    OBJECT CODE    LINE  SOURCE TEXT
  VALUE

0040   18??           00573         BTFSC   r0x1075,0
0041   1783           00574         BSF     STATUS,7
0042   1283 1303      00575         BANKSEL INDF
0044   0800           00576         MOVF    INDF,W
0045   0??? 0???      00577         BANKSEL r0x1076
0047   00??           00578         MOVWF   r0x1076
0048   3000           00579         MOVLW   0x00
0049   00??           00580         MOVWF   STK00
004A   08??           00581         MOVF    r0x1076,W
004B   0??? 0???      00582         PAGESEL _ow_write_byte
004D   2???           00583         CALL    _ow_write_byte
004E   0??? 0???      00584         PAGESEL $
0050   0??? 0???      00585         BANKSEL r0x1073
0052   0A??           00586         INCF    r0x1073,F
                      00587 ;;unsigned compare: left < lit(0x8=8), size=1
0053   3008           00588         MOVLW   0x08
0054   02??           00589         SUBWF   r0x1073,W
0055   1C03           00590         BTFSS   STATUS,0
0056   2???           00591         GOTO    _00295_DS_
                      00592 ;;genSkipc:3257: created from rifx:0x7ffe9e83b960
                      00593 ;       .line   306; "onewire.c"        return 1;
0057   3001           00594         MOVLW   0x01
0058                  00595 _00297_DS_:
                      00596 ;       .line   307; "onewire.c"        }
0058   0008           00597         RETURN  
                      00598 ; exit point of _ow_access
                      00599 
                      00600 ;***
                      00601 ;  pBlock Stats: dbName = C
                      00602 ;***
                      00603 ;has an exit
                      00604 ;functions called:
                      00605 ;   _ow_reset
                      00606 ;   _ow_first
                      00607 ;   __mulchar
                      00608 ;   _ow_next
                      00609 ;   _ow_reset
                      00610 ;   _ow_first
                      00611 ;   __mulchar
                      00612 ;   _ow_next
                      00613 ;7 compiler assigned registers:
                      00614 ;   r0x1089
                      00615 ;   STK00
                      00616 ;   r0x108A
                      00617 ;   r0x108B
                      00618 ;   r0x108C
                      00619 ;   r0x108D
                      00620 ;   r0x108E
                      00621 ;; Starting pCode block
                      00622 S_onewire__ow_search    code
0000                  00623 _ow_search:
                      00624 ; 2 exit points
                      00625 ;       .line   262; "onewire.c"        if(!ow_reset()) {
gpasm-1.5.2 #0 (Dec 27 2019) build/sdcc-16f87   27.12.2019  16:44:07        PAGE 13


LOC    OBJECT CODE    LINE  SOURCE TEXT
  VALUE

0000   0??? 0???      00626         PAGESEL _ow_reset
0002   2???           00627         CALL    _ow_reset
0003   0??? 0???      00628         PAGESEL $
0005   0??? 0???      00629         BANKSEL r0x1089
0007   00??           00630         MOVWF   r0x1089
0008   08??           00631         MOVF    r0x1089,W
0009   1D03           00632         BTFSS   STATUS,2
000A   2???           00633         GOTO    _00287_DS_
                      00634 ;       .line   263; "onewire.c"        if(ow_first()) { // Begins when at least one part found
000B   0??? 0???      00635         PAGESEL _ow_first
000D   2???           00636         CALL    _ow_first
000E   0??? 0???      00637         PAGESEL $
0010   0??? 0???      00638         BANKSEL r0x1089
0012   00??           00639         MOVWF   r0x1089
0013   08??           00640         MOVF    r0x1089,W
0014   1903           00641         BTFSC   STATUS,2
0015   2???           00642         GOTO    _00287_DS_
                      00643 ;       .line   264; "onewire.c"        numROMs = 0;
0016   0??? 0???      00644         BANKSEL _numROMs
0018   01??           00645         CLRF    _numROMs
0019                  00646 _00278_DS_:
                      00647 ;       .line   267; "onewire.c"        numROMs++;
0019   0??? 0???      00648         BANKSEL _numROMs
001B   0A??           00649         INCF    _numROMs,F
                      00650 ;       .line   269; "onewire.c"        for(m = 0; m < 8; m++) {
001C   0??? 0???      00651         BANKSEL r0x1089
001E   01??           00652         CLRF    r0x1089
001F                  00653 _00285_DS_:
                      00654 ;       .line   270; "onewire.c"        FoundROM[numROMs][m] = RomBytes[m];
001F   3008           00655         MOVLW   0x08
0020   00??           00656         MOVWF   STK00
0021   0??? 0???      00657         BANKSEL _numROMs
0023   08??           00658         MOVF    _numROMs,W
0024   0??? 0???      00659         PAGESEL __mulchar
0026   2???           00660         CALL    __mulchar
0027   0??? 0???      00661         PAGESEL $
0029   0??? 0???      00662         BANKSEL r0x108A
002B   00??           00663         MOVWF   r0x108A
002C   01??           00664         CLRF    r0x108B
002D   08??           00665         MOVF    r0x108A,W
002E   3E??           00666         ADDLW   (_FoundROM + 0)
002F   00??           00667         MOVWF   r0x108A
0030   3000           00668         MOVLW   0x00
0031   1803           00669         BTFSC   STATUS,0
0032   0F??           00670         INCFSZ  r0x108B,W
0033   3E??           00671         ADDLW   high (_FoundROM + 0)
0034   00??           00672         MOVWF   r0x108B
0035   08??           00673         MOVF    r0x1089,W
0036   07??           00674         ADDWF   r0x108A,F
0037   08??           00675         MOVF    r0x108B,W
0038   1803           00676         BTFSC   STATUS,0
0039   3E01           00677         ADDLW   0x01
003A   00??           00678         MOVWF   r0x108B
gpasm-1.5.2 #0 (Dec 27 2019) build/sdcc-16f87   27.12.2019  16:44:07        PAGE 14


LOC    OBJECT CODE    LINE  SOURCE TEXT
  VALUE

003B   08??           00679         MOVF    r0x1089,W
003C   3E??           00680         ADDLW   (_RomBytes + 0)
003D   00??           00681         MOVWF   r0x108C
003E   30??           00682         MOVLW   high (_RomBytes + 0)
003F   1803           00683         BTFSC   STATUS,0
0040   3E01           00684         ADDLW   0x01
0041   00??           00685         MOVWF   r0x108D
0042   08??           00686         MOVF    r0x108C,W
0043   1283 1303      00687         BANKSEL FSR
0045   0084           00688         MOVWF   FSR
0046   1383           00689         BCF     STATUS,7
0047   0??? 0???      00690         BANKSEL r0x108D
0049   18??           00691         BTFSC   r0x108D,0
004A   1783           00692         BSF     STATUS,7
004B   1283 1303      00693         BANKSEL INDF
004D   0800           00694         MOVF    INDF,W
004E   0??? 0???      00695         BANKSEL r0x108E
0050   00??           00696         MOVWF   r0x108E
0051   08??           00697         MOVF    r0x108A,W
0052   1283 1303      00698         BANKSEL FSR
0054   0084           00699         MOVWF   FSR
0055   1383           00700         BCF     STATUS,7
0056   0??? 0???      00701         BANKSEL r0x108B
0058   18??           00702         BTFSC   r0x108B,0
0059   1783           00703         BSF     STATUS,7
005A   08??           00704         MOVF    r0x108E,W
005B   1283 1303      00705         BANKSEL INDF
005D   0080           00706         MOVWF   INDF
                      00707 ;       .line   269; "onewire.c"        for(m = 0; m < 8; m++) {
005E   0??? 0???      00708         BANKSEL r0x1089
0060   0A??           00709         INCF    r0x1089,F
                      00710 ;;unsigned compare: left < lit(0x8=8), size=1
0061   3008           00711         MOVLW   0x08
0062   02??           00712         SUBWF   r0x1089,W
0063   1C03           00713         BTFSS   STATUS,0
0064   2???           00714         GOTO    _00285_DS_
                      00715 ;;genSkipc:3257: created from rifx:0x7ffe9e83b960
                      00716 ;       .line   283; "onewire.c"        } while(ow_next() && (numROMs < 10)); // Continues until no addi
                            tional
0065   0??? 0???      00717         PAGESEL _ow_next
0067   2???           00718         CALL    _ow_next
0068   0??? 0???      00719         PAGESEL $
006A   0??? 0???      00720         BANKSEL r0x1089
006C   00??           00721         MOVWF   r0x1089
006D   08??           00722         MOVF    r0x1089,W
006E   1903           00723         BTFSC   STATUS,2
006F   2???           00724         GOTO    _00287_DS_
                      00725 ;;unsigned compare: left < lit(0xA=10), size=1
0070   300A           00726         MOVLW   0x0a
0071   0??? 0???      00727         BANKSEL _numROMs
0073   02??           00728         SUBWF   _numROMs,W
0074   1C03           00729         BTFSS   STATUS,0
0075   2???           00730         GOTO    _00278_DS_
gpasm-1.5.2 #0 (Dec 27 2019) build/sdcc-16f87   27.12.2019  16:44:07        PAGE 15


LOC    OBJECT CODE    LINE  SOURCE TEXT
  VALUE

                      00731 ;;genSkipc:3257: created from rifx:0x7ffe9e83b960
0076                  00732 _00287_DS_:
                      00733 ;       .line   290; "onewire.c"        }
0076   0008           00734         RETURN  
                      00735 ; exit point of _ow_search
                      00736 
                      00737 ;***
                      00738 ;  pBlock Stats: dbName = C
                      00739 ;***
                      00740 ;has an exit
                      00741 ;functions called:
                      00742 ;   _ow_next
                      00743 ;   _ow_next
                      00744 ;1 compiler assigned register :
                      00745 ;   r0x1088
                      00746 ;; Starting pCode block
                      00747 S_onewire__ow_first     code
0000                  00748 _ow_first:
                      00749 ; 2 exit points
                      00750 ;       .line   251; "onewire.c"        lastDiscrep = 0;
0000   0??? 0???      00751         BANKSEL _lastDiscrep
0002   01??           00752         CLRF    _lastDiscrep
                      00753 ;       .line   252; "onewire.c"        doneFlag = 0;
0003   0??? 0???      00754         BANKSEL _doneFlag
0005   01??           00755         CLRF    _doneFlag
                      00756 ;       .line   254; "onewire.c"        return ow_next(); // Call ow_next and return it's return value;
0006   0??? 0???      00757         PAGESEL _ow_next
0008   2???           00758         CALL    _ow_next
0009   0??? 0???      00759         PAGESEL $
                      00760 ;;1     MOVWF   r0x1088
                      00761 ;       .line   255; "onewire.c"        }
000B   0008           00762         RETURN  
                      00763 ; exit point of _ow_first
                      00764 
                      00765 ;***
                      00766 ;  pBlock Stats: dbName = C
                      00767 ;***
                      00768 ;has an exit
                      00769 ;functions called:
                      00770 ;   _ow_reset
                      00771 ;   _ow_write_byte
                      00772 ;   _ow_read_bit
                      00773 ;   _delay_us
                      00774 ;   _ow_read_bit
                      00775 ;   _ow_write_bit
                      00776 ;   _ow_crc
                      00777 ;   _ow_reset
                      00778 ;   _ow_write_byte
                      00779 ;   _ow_read_bit
                      00780 ;   _delay_us
                      00781 ;   _ow_read_bit
                      00782 ;   _ow_write_bit
                      00783 ;   _ow_crc
gpasm-1.5.2 #0 (Dec 27 2019) build/sdcc-16f87   27.12.2019  16:44:07        PAGE 16


LOC    OBJECT CODE    LINE  SOURCE TEXT
  VALUE

                      00784 ;12 compiler assigned registers:
                      00785 ;   r0x107D
                      00786 ;   r0x107E
                      00787 ;   r0x107F
                      00788 ;   r0x1080
                      00789 ;   STK00
                      00790 ;   r0x1081
                      00791 ;   r0x1082
                      00792 ;   r0x1083
                      00793 ;   r0x1084
                      00794 ;   r0x1085
                      00795 ;   r0x1086
                      00796 ;   r0x1087
                      00797 ;; Starting pCode block
                      00798 S_onewire__ow_next      code
0000                  00799 _ow_next:
                      00800 ; 2 exit points
                      00801 ;       .line   161; "onewire.c"        uint8_t k = 1; // Bit mask
0000   3001           00802         MOVLW   0x01
0001   0??? 0???      00803         BANKSEL r0x107D
0003   00??           00804         MOVWF   r0x107D
                      00805 ;       .line   163; "onewire.c"        uint8_t discrepMarker = 0;
0004   01??           00806         CLRF    r0x107E
                      00807 ;       .line   168; "onewire.c"        nxt = 0; // Reset next flag to 0
0005   01??           00808         CLRF    r0x107F
                      00809 ;       .line   170; "onewire.c"        ow_dowcrc = 0; // Reset the ow_dowcrc
0006   0??? 0???      00810         BANKSEL _ow_dowcrc
0008   01??           00811         CLRF    _ow_dowcrc
                      00812 ;       .line   172; "onewire.c"        flag = ow_reset();
0009   0??? 0???      00813         PAGESEL _ow_reset
000B   2???           00814         CALL    _ow_reset
000C   0??? 0???      00815         PAGESEL $
000E   0??? 0???      00816         BANKSEL r0x1080
0010   00??           00817         MOVWF   r0x1080
                      00818 ;       .line   174; "onewire.c"        if(flag || doneFlag) { // If no parts return 0
0011   08??           00819         MOVF    r0x1080,W
0012   1D03           00820         BTFSS   STATUS,2
0013   2???           00821         GOTO    _00179_DS_
0014   0??? 0???      00822         BANKSEL _doneFlag
0016   08??           00823         MOVF    _doneFlag,W
0017   1903           00824         BTFSC   STATUS,2
0018   2???           00825         GOTO    _00180_DS_
0019                  00826 _00179_DS_:
                      00827 ;       .line   175; "onewire.c"        lastDiscrep = 0;     // Reset the search
0019   0??? 0???      00828         BANKSEL _lastDiscrep
001B   01??           00829         CLRF    _lastDiscrep
                      00830 ;       .line   176; "onewire.c"        return 0;
001C   3000           00831         MOVLW   0x00
001D   2???           00832         GOTO    _00209_DS_
001E                  00833 _00180_DS_:
                      00834 ;       .line   179; "onewire.c"        ow_write_byte(0xF0, 0); // Send SearchROM command
001E   3000           00835         MOVLW   0x00
001F   00??           00836         MOVWF   STK00
gpasm-1.5.2 #0 (Dec 27 2019) build/sdcc-16f87   27.12.2019  16:44:07        PAGE 17


LOC    OBJECT CODE    LINE  SOURCE TEXT
  VALUE

0020   30F0           00837         MOVLW   0xf0
0021   0??? 0???      00838         PAGESEL _ow_write_byte
0023   2???           00839         CALL    _ow_write_byte
0024   0??? 0???      00840         PAGESEL $
                      00841 ;       .line   181; "onewire.c"        do {
0026   0??? 0???      00842         BANKSEL r0x1080
0028   01??           00843         CLRF    r0x1080
0029   3001           00844         MOVLW   0x01
002A   00??           00845         MOVWF   r0x1081
002B                  00846 _00202_DS_:
                      00847 ;       .line   182; "onewire.c"        x = 0;
002B   0??? 0???      00848         BANKSEL r0x1082
002D   01??           00849         CLRF    r0x1082
                      00850 ;       .line   184; "onewire.c"        if(ow_read_bit() == 1)
002E   0??? 0???      00851         PAGESEL _ow_read_bit
0030   2???           00852         CALL    _ow_read_bit
0031   0??? 0???      00853         PAGESEL $
0033   0??? 0???      00854         BANKSEL r0x1083
0035   00??           00855         MOVWF   r0x1083
0036   3A01           00856         XORLW   0x01
0037   1D03           00857         BTFSS   STATUS,2
0038   2???           00858         GOTO    _00183_DS_
                      00859 ;       .line   185; "onewire.c"        x = 2;
0039   3002           00860         MOVLW   0x02
003A   00??           00861         MOVWF   r0x1082
003B                  00862 _00183_DS_:
                      00863 ;       .line   187; "onewire.c"        delay_us(120);
003B   3078           00864         MOVLW   0x78
003C   0??? 0???      00865         PAGESEL _delay_us
003E   2???           00866         CALL    _delay_us
003F   0??? 0???      00867         PAGESEL $
                      00868 ;       .line   189; "onewire.c"        if(ow_read_bit() == 1)
0041   0??? 0???      00869         PAGESEL _ow_read_bit
0043   2???           00870         CALL    _ow_read_bit
0044   0??? 0???      00871         PAGESEL $
0046   0??? 0???      00872         BANKSEL r0x1083
0048   00??           00873         MOVWF   r0x1083
                      00874 ;       .line   190; "onewire.c"        x |= 1; // And it's complement
0049   3A01           00875         XORLW   0x01
                      00876 ;       .line   192; "onewire.c"        if(x == 3) // There are no devices on the one wire bus
004A   1903           00877         BTFSC   STATUS,2
004B   14??           00878         BSF     r0x1082,0
004C   08??           00879         MOVF    r0x1082,W
                      00880 ;       .line   195; "onewire.c"        if(x > 0)     // All devices coupled have 0 or 1
004D   3A03           00881         XORLW   0x03
004E   1903           00882         BTFSC   STATUS,2
004F   2???           00883         GOTO    _00204_DS_
0050   08??           00884         MOVF    r0x1082,W
0051   1903           00885         BTFSC   STATUS,2
0052   2???           00886         GOTO    _00192_DS_
                      00887 ;;shiftRight_Left2ResultLit:5323: shCount=1, size=1, sign=0, same=0, offr=0
                      00888 ;       .line   196; "onewire.c"        g = x >> 1; // Bit write value for search
0053   1003           00889         BCF     STATUS,0
gpasm-1.5.2 #0 (Dec 27 2019) build/sdcc-16f87   27.12.2019  16:44:07        PAGE 18


LOC    OBJECT CODE    LINE  SOURCE TEXT
  VALUE

0054   0C??           00890         RRF     r0x1082,W
0055   00??           00891         MOVWF   r0x1083
0056   2???           00892         GOTO    _00193_DS_
0057                  00893 _00192_DS_:
                      00894 ;       .line   201; "onewire.c"        if(m < lastDiscrep)
0057   0??? 0???      00895         BANKSEL r0x1081
0059   08??           00896         MOVF    r0x1081,W
005A   3E80           00897         ADDLW   0x80
005B   00??           00898         MOVWF   r0x1084
005C   0??? 0???      00899         BANKSEL _lastDiscrep
005E   08??           00900         MOVF    _lastDiscrep,W
005F   3E80           00901         ADDLW   0x80
0060   0??? 0???      00902         BANKSEL r0x1084
0062   02??           00903         SUBWF   r0x1084,W
0063   1803           00904         BTFSC   STATUS,0
0064   2???           00905         GOTO    _00187_DS_
                      00906 ;;genSkipc:3257: created from rifx:0x7ffe9e83b960
                      00907 ;       .line   202; "onewire.c"        g = ((RomBytes[n] & k) > 0);
0065   08??           00908         MOVF    r0x1080,W
0066   3E??           00909         ADDLW   (_RomBytes + 0)
0067   00??           00910         MOVWF   r0x1082
0068   30??           00911         MOVLW   high (_RomBytes + 0)
0069   1803           00912         BTFSC   STATUS,0
006A   3E01           00913         ADDLW   0x01
006B   00??           00914         MOVWF   r0x1085
006C   08??           00915         MOVF    r0x1082,W
006D   1283 1303      00916         BANKSEL FSR
006F   0084           00917         MOVWF   FSR
0070   1383           00918         BCF     STATUS,7
0071   0??? 0???      00919         BANKSEL r0x1085
0073   18??           00920         BTFSC   r0x1085,0
0074   1783           00921         BSF     STATUS,7
0075   1283 1303      00922         BANKSEL INDF
0077   0800           00923         MOVF    INDF,W
0078   0??? 0???      00924         BANKSEL r0x1084
007A   00??           00925         MOVWF   r0x1084
007B   08??           00926         MOVF    r0x107D,W
007C   05??           00927         ANDWF   r0x1084,W
007D   00??           00928         MOVWF   r0x1082
007E   08??           00929         MOVF    r0x1082,W
007F   1903           00930         BTFSC   STATUS,2
0080   2???           00931         GOTO    _00211_DS_
0081   3001           00932         MOVLW   0x01
0082   00??           00933         MOVWF   r0x1082
0083   01??           00934         CLRF    r0x1084
0084   2???           00935         GOTO    _00212_DS_
0085                  00936 _00211_DS_:
0085   0??? 0???      00937         BANKSEL r0x1082
0087   01??           00938         CLRF    r0x1082
0088   01??           00939         CLRF    r0x1084
0089                  00940 _00212_DS_:
0089   0??? 0???      00941         BANKSEL r0x1082
008B   08??           00942         MOVF    r0x1082,W
gpasm-1.5.2 #0 (Dec 27 2019) build/sdcc-16f87   27.12.2019  16:44:07        PAGE 19


LOC    OBJECT CODE    LINE  SOURCE TEXT
  VALUE

008C   00??           00943         MOVWF   r0x1083
008D   2???           00944         GOTO    _00188_DS_
008E                  00945 _00187_DS_:
                      00946 ;       .line   205; "onewire.c"        g = (m == lastDiscrep); // If not then pick 0
008E   0??? 0???      00947         BANKSEL r0x1083
0090   01??           00948         CLRF    r0x1083
0091   0??? 0???      00949         BANKSEL _lastDiscrep
0093   08??           00950         MOVF    _lastDiscrep,W
                      00951 ;       .line   208; "onewire.c"        if(g == 0)
0094   0??? 0???      00952         BANKSEL r0x1081
0096   06??           00953         XORWF   r0x1081,W
0097   1903           00954         BTFSC   STATUS,2
0098   0A??           00955         INCF    r0x1083,F
0099                  00956 _00188_DS_:
0099   3000           00957         MOVLW   0x00
009A   0??? 0???      00958         BANKSEL r0x1083
009C   04??           00959         IORWF   r0x1083,W
009D   1D03           00960         BTFSS   STATUS,2
009E   2???           00961         GOTO    _00193_DS_
                      00962 ;       .line   209; "onewire.c"        discrepMarker = m;
009F   08??           00963         MOVF    r0x1081,W
00A0   00??           00964         MOVWF   r0x107E
00A1                  00965 _00193_DS_:
                      00966 ;       .line   213; "onewire.c"        if(g == 1)
00A1   0??? 0???      00967         BANKSEL r0x1083
00A3   08??           00968         MOVF    r0x1083,W
00A4   3A01           00969         XORLW   0x01
00A5   1D03           00970         BTFSS   STATUS,2
00A6   2???           00971         GOTO    _00195_DS_
                      00972 ;       .line   214; "onewire.c"        RomBytes[n] |= k;
00A7   08??           00973         MOVF    r0x1080,W
00A8   3E??           00974         ADDLW   (_RomBytes + 0)
00A9   00??           00975         MOVWF   r0x1082
00AA   30??           00976         MOVLW   high (_RomBytes + 0)
00AB   1803           00977         BTFSC   STATUS,0
00AC   3E01           00978         ADDLW   0x01
00AD   00??           00979         MOVWF   r0x1084
00AE   08??           00980         MOVF    r0x1082,W
00AF   1283 1303      00981         BANKSEL FSR
00B1   0084           00982         MOVWF   FSR
00B2   1383           00983         BCF     STATUS,7
00B3   0??? 0???      00984         BANKSEL r0x1084
00B5   18??           00985         BTFSC   r0x1084,0
00B6   1783           00986         BSF     STATUS,7
00B7   1283 1303      00987         BANKSEL INDF
00B9   0800           00988         MOVF    INDF,W
00BA   0??? 0???      00989         BANKSEL r0x1086
00BC   00??           00990         MOVWF   r0x1086
00BD   08??           00991         MOVF    r0x107D,W
00BE   04??           00992         IORWF   r0x1086,F
00BF   08??           00993         MOVF    r0x1082,W
00C0   1283 1303      00994         BANKSEL FSR
00C2   0084           00995         MOVWF   FSR
gpasm-1.5.2 #0 (Dec 27 2019) build/sdcc-16f87   27.12.2019  16:44:07        PAGE 20


LOC    OBJECT CODE    LINE  SOURCE TEXT
  VALUE

00C3   1383           00996         BCF     STATUS,7
00C4   0??? 0???      00997         BANKSEL r0x1084
00C6   18??           00998         BTFSC   r0x1084,0
00C7   1783           00999         BSF     STATUS,7
00C8   08??           01000         MOVF    r0x1086,W
00C9   1283 1303      01001         BANKSEL INDF
00CB   0080           01002         MOVWF   INDF
00CC   2???           01003         GOTO    _00196_DS_
00CD                  01004 _00195_DS_:
                      01005 ;       .line   216; "onewire.c"        RomBytes[n] &= ~k;
00CD   0??? 0???      01006         BANKSEL r0x1080
00CF   08??           01007         MOVF    r0x1080,W
00D0   3E??           01008         ADDLW   (_RomBytes + 0)
00D1   00??           01009         MOVWF   r0x1082
00D2   30??           01010         MOVLW   high (_RomBytes + 0)
00D3   1803           01011         BTFSC   STATUS,0
00D4   3E01           01012         ADDLW   0x01
00D5   00??           01013         MOVWF   r0x1084
00D6   08??           01014         MOVF    r0x1082,W
00D7   1283 1303      01015         BANKSEL FSR
00D9   0084           01016         MOVWF   FSR
00DA   1383           01017         BCF     STATUS,7
00DB   0??? 0???      01018         BANKSEL r0x1084
00DD   18??           01019         BTFSC   r0x1084,0
00DE   1783           01020         BSF     STATUS,7
00DF   1283 1303      01021         BANKSEL INDF
00E1   0800           01022         MOVF    INDF,W
00E2   0??? 0???      01023         BANKSEL r0x1086
00E4   00??           01024         MOVWF   r0x1086
00E5   09??           01025         COMF    r0x107D,W
                      01026 ;;1     MOVWF   r0x1087
00E6   05??           01027         ANDWF   r0x1086,F
00E7   08??           01028         MOVF    r0x1082,W
00E8   1283 1303      01029         BANKSEL FSR
00EA   0084           01030         MOVWF   FSR
00EB   1383           01031         BCF     STATUS,7
00EC   0??? 0???      01032         BANKSEL r0x1084
00EE   18??           01033         BTFSC   r0x1084,0
00EF   1783           01034         BSF     STATUS,7
00F0   08??           01035         MOVF    r0x1086,W
00F1   1283 1303      01036         BANKSEL INDF
00F3   0080           01037         MOVWF   INDF
00F4                  01038 _00196_DS_:
                      01039 ;       .line   218; "onewire.c"        ow_write_bit(g); // ROM search write
00F4   0??? 0???      01040         BANKSEL r0x1083
00F6   08??           01041         MOVF    r0x1083,W
00F7   0??? 0???      01042         PAGESEL _ow_write_bit
00F9   2???           01043         CALL    _ow_write_bit
00FA   0??? 0???      01044         PAGESEL $
                      01045 ;       .line   220; "onewire.c"        m++;        // Increment bit counter m
00FC   0??? 0???      01046         BANKSEL r0x1081
00FE   0A??           01047         INCF    r0x1081,F
                      01048 ;       .line   221; "onewire.c"        k = k << 1; // and shift the bit mask k
gpasm-1.5.2 #0 (Dec 27 2019) build/sdcc-16f87   27.12.2019  16:44:07        PAGE 21


LOC    OBJECT CODE    LINE  SOURCE TEXT
  VALUE

00FF   08??           01049         MOVF    r0x107D,W
0100   00??           01050         MOVWF   r0x1082
0101   1003           01051         BCF     STATUS,0
0102   0D??           01052         RLF     r0x1082,W
0103   00??           01053         MOVWF   r0x107D
                      01054 ;       .line   224; "onewire.c"        if(k == 0) {
0104   08??           01055         MOVF    r0x107D,W
0105   1D03           01056         BTFSS   STATUS,2
0106   2???           01057         GOTO    _00203_DS_
                      01058 ;       .line   226; "onewire.c"        ow_crc(RomBytes[n]); // Accumulate the crc
0107   08??           01059         MOVF    r0x1080,W
0108   3E??           01060         ADDLW   (_RomBytes + 0)
0109   00??           01061         MOVWF   r0x1082
010A   30??           01062         MOVLW   high (_RomBytes + 0)
010B   1803           01063         BTFSC   STATUS,0
010C   3E01           01064         ADDLW   0x01
010D   00??           01065         MOVWF   r0x1083
010E   08??           01066         MOVF    r0x1082,W
010F   1283 1303      01067         BANKSEL FSR
0111   0084           01068         MOVWF   FSR
0112   1383           01069         BCF     STATUS,7
0113   0??? 0???      01070         BANKSEL r0x1083
0115   18??           01071         BTFSC   r0x1083,0
0116   1783           01072         BSF     STATUS,7
0117   1283 1303      01073         BANKSEL INDF
0119   0800           01074         MOVF    INDF,W
011A   0??? 0???      01075         BANKSEL r0x1084
011C   00??           01076         MOVWF   r0x1084
011D   0??? 0???      01077         PAGESEL _ow_crc
011F   2???           01078         CALL    _ow_crc
0120   0??? 0???      01079         PAGESEL $
                      01080 ;       .line   227; "onewire.c"        n++;
0122   0??? 0???      01081         BANKSEL r0x1080
0124   0A??           01082         INCF    r0x1080,F
                      01083 ;       .line   228; "onewire.c"        k++;
0125   0A??           01084         INCF    r0x107D,F
                      01085 ;;unsigned compare: left < lit(0x8=8), size=1
0126                  01086 _00203_DS_:
                      01087 ;       .line   231; "onewire.c"        } while(n < 8); // Loop through until through all ROM bytes 0-7
0126   3008           01088         MOVLW   0x08
0127   0??? 0???      01089         BANKSEL r0x1080
0129   02??           01090         SUBWF   r0x1080,W
012A   1C03           01091         BTFSS   STATUS,0
012B   2???           01092         GOTO    _00202_DS_
                      01093 ;;genSkipc:3257: created from rifx:0x7ffe9e83b960
                      01094 ;;signed compare: left < lit(0x41=65), size=1, mask=ff
012C                  01095 _00204_DS_:
                      01096 ;       .line   233; "onewire.c"        if(m < 65 || ow_dowcrc) // If search was unsuccessful then
012C   0??? 0???      01097         BANKSEL r0x1081
012E   08??           01098         MOVF    r0x1081,W
012F   3E80           01099         ADDLW   0x80
0130   3E3F           01100         ADDLW   0x3f
0131   1C03           01101         BTFSS   STATUS,0
gpasm-1.5.2 #0 (Dec 27 2019) build/sdcc-16f87   27.12.2019  16:44:07        PAGE 22


LOC    OBJECT CODE    LINE  SOURCE TEXT
  VALUE

0132   2???           01102         GOTO    _00205_DS_
                      01103 ;;genSkipc:3257: created from rifx:0x7ffe9e83b960
0133   0??? 0???      01104         BANKSEL _ow_dowcrc
0135   08??           01105         MOVF    _ow_dowcrc,W
0136   1903           01106         BTFSC   STATUS,2
0137   2???           01107         GOTO    _00206_DS_
0138                  01108 _00205_DS_:
                      01109 ;       .line   234; "onewire.c"        lastDiscrep = 0;      // reset the last Discrepancy to zero
0138   0??? 0???      01110         BANKSEL _lastDiscrep
013A   01??           01111         CLRF    _lastDiscrep
013B   2???           01112         GOTO    _00207_DS_
013C                  01113 _00206_DS_:
                      01114 ;       .line   237; "onewire.c"        lastDiscrep = discrepMarker;
013C   0??? 0???      01115         BANKSEL r0x107E
013E   08??           01116         MOVF    r0x107E,W
013F   0??? 0???      01117         BANKSEL _lastDiscrep
0141   00??           01118         MOVWF   _lastDiscrep
                      01119 ;       .line   238; "onewire.c"        doneFlag = (lastDiscrep == 0);
0142   0??? 0???      01120         BANKSEL _doneFlag
0144   01??           01121         CLRF    _doneFlag
                      01122 ;       .line   239; "onewire.c"        nxt = 1; // Indicates search not yet complete, more parts remain
0145   0??? 0???      01123         BANKSEL _lastDiscrep
0147   08??           01124         MOVF    _lastDiscrep,W
0148   1D03           01125         BTFSS   STATUS,2
0149   2???           01126         GOTO    _00001_DS_
014A   0??? 0???      01127         BANKSEL _doneFlag
014C   0A??           01128         INCF    _doneFlag,F
014D                  01129 _00001_DS_:
014D   3001           01130         MOVLW   0x01
014E   0??? 0???      01131         BANKSEL r0x107F
0150   00??           01132         MOVWF   r0x107F
0151                  01133 _00207_DS_:
                      01134 ;       .line   242; "onewire.c"        return nxt;
0151   0??? 0???      01135         BANKSEL r0x107F
0153   08??           01136         MOVF    r0x107F,W
0154                  01137 _00209_DS_:
                      01138 ;       .line   243; "onewire.c"        }
0154   0008           01139         RETURN  
                      01140 ; exit point of _ow_next
                      01141 
                      01142 ;***
                      01143 ;  pBlock Stats: dbName = C
                      01144 ;***
                      01145 ;has an exit
                      01146 ;functions called:
                      01147 ;   __gptrget1
                      01148 ;   __gptrget1
                      01149 ;8 compiler assigned registers:
                      01150 ;   r0x1077
                      01151 ;   r0x1078
                      01152 ;   r0x1079
                      01153 ;   r0x107A
                      01154 ;   r0x107B
gpasm-1.5.2 #0 (Dec 27 2019) build/sdcc-16f87   27.12.2019  16:44:07        PAGE 23


LOC    OBJECT CODE    LINE  SOURCE TEXT
  VALUE

                      01155 ;   r0x107C
                      01156 ;   STK01
                      01157 ;   STK00
                      01158 ;; Starting pCode block
                      01159 S_onewire__ow_crc       code
0000                  01160 _ow_crc:
                      01161 ; 2 exit points
                      01162 ;       .line   147; "onewire.c"        ow_crc(uint8_t x) {
0000   0??? 0???      01163         BANKSEL r0x1077
0002   00??           01164         MOVWF   r0x1077
                      01165 ;       .line   148; "onewire.c"        ow_dowcrc = ow_crctable[ow_dowcrc ^ x];
0003   0??? 0???      01166         BANKSEL _ow_dowcrc
0005   08??           01167         MOVF    _ow_dowcrc,W
0006   0??? 0???      01168         BANKSEL r0x1078
0008   00??           01169         MOVWF   r0x1078
0009   01??           01170         CLRF    r0x1079
000A   1B??           01171         BTFSC   r0x1078,7
000B   03??           01172         DECF    r0x1079,F
                      01173 ;;101   MOVF    r0x1077,W
                      01174 ;;99    MOVWF   r0x107A
                      01175 ;;1     CLRF    r0x107B
                      01176 ;;100   MOVF    r0x107A,W
000C   08??           01177         MOVF    r0x1077,W
000D   06??           01178         XORWF   r0x1078,W
000E   00??           01179         MOVWF   r0x1077
000F   3000           01180         MOVLW   0x00
0010   06??           01181         XORWF   r0x1079,W
0011   00??           01182         MOVWF   r0x107C
0012   08??           01183         MOVF    r0x1077,W
0013   3E??           01184         ADDLW   (_ow_crctable + 0)
0014   00??           01185         MOVWF   r0x1077
0015   08??           01186         MOVF    r0x107C,W
0016   1803           01187         BTFSC   STATUS,0
0017   0F??           01188         INCFSZ  r0x107C,W
0018   3E??           01189         ADDLW   high (_ow_crctable + 0)
0019   00??           01190         MOVWF   r0x107C
001A   08??           01191         MOVF    r0x1077,W
001B   00??           01192         MOVWF   STK01
001C   08??           01193         MOVF    r0x107C,W
001D   00??           01194         MOVWF   STK00
001E   3080           01195         MOVLW   0x80
001F   0??? 0???      01196         PAGESEL __gptrget1
0021   2???           01197         CALL    __gptrget1
0022   0??? 0???      01198         PAGESEL $
                      01199 ;       .line   150; "onewire.c"        return ow_dowcrc;
0024   0??? 0???      01200         BANKSEL _ow_dowcrc
0026   00??           01201         MOVWF   _ow_dowcrc
                      01202 ;       .line   151; "onewire.c"        }
0027   0008           01203         RETURN  
                      01204 ; exit point of _ow_crc
                      01205 
                      01206 ;***
                      01207 ;  pBlock Stats: dbName = C
gpasm-1.5.2 #0 (Dec 27 2019) build/sdcc-16f87   27.12.2019  16:44:07        PAGE 24


LOC    OBJECT CODE    LINE  SOURCE TEXT
  VALUE

                      01208 ;***
                      01209 ;has an exit
                      01210 ;functions called:
                      01211 ;   _delay_us
                      01212 ;   _delay_us
                      01213 ;   _delay_us
                      01214 ;   _delay_us
                      01215 ;   _delay_us
                      01216 ;   _delay_us
                      01217 ;6 compiler assigned registers:
                      01218 ;   r0x106C
                      01219 ;   STK00
                      01220 ;   r0x106D
                      01221 ;   r0x106E
                      01222 ;   r0x106F
                      01223 ;   r0x1070
                      01224 ;; Starting pCode block
                      01225 S_onewire__ow_write_byte        code
0000                  01226 _ow_write_byte:
                      01227 ; 2 exit points
                      01228 ;       .line   119; "onewire.c"        ow_write_byte(uint8_t val, BOOL power_on) {
0000   0??? 0???      01229         BANKSEL r0x106C
0002   00??           01230         MOVWF   r0x106C
0003   08??           01231         MOVF    STK00,W
0004   00??           01232         MOVWF   r0x106D
                      01233 ;       .line   122; "onewire.c"        for(i = 0; i < 8; i++) {
0005   01??           01234         CLRF    r0x106E
0006   08??           01235         MOVF    r0x106D,W
0007   3A01           01236         XORLW   0x01
0008   1903           01237         BTFSC   STATUS,2
0009   0A??           01238         INCF    r0x106E,F
000A   01??           01239         CLRF    r0x106D
000B   01??           01240         CLRF    r0x106F
000C                  01241 _00152_DS_:
                      01242 ;       .line   123; "onewire.c"        DQ_BIT = 0;
000C   0??? 0???      01243         BANKSEL _PORTCbits
000E   11??           01244         BCF     _PORTCbits,3
                      01245 ;       .line   124; "onewire.c"        DQ_TRIS = 0;
000F   0??? 0???      01246         BANKSEL _TRISCbits
0011   11??           01247         BCF     _TRISCbits,3
                      01248 ;       .line   126; "onewire.c"        delay_us(2);
0012   3002           01249         MOVLW   0x02
0013   0??? 0???      01250         PAGESEL _delay_us
0015   2???           01251         CALL    _delay_us
0016   0??? 0???      01252         PAGESEL $
                      01253 ;       .line   128; "onewire.c"        DQ_BIT = val & 1;
0018   0??? 0???      01254         BANKSEL r0x106C
001A   08??           01255         MOVF    r0x106C,W
001B   00??           01256         MOVWF   r0x1070
001C   0C??           01257         RRF     r0x1070,W
001D   1803           01258         BTFSC   STATUS,0
001E   2???           01259         GOTO    _00002_DS_
001F   0??? 0???      01260         BANKSEL _PORTCbits
gpasm-1.5.2 #0 (Dec 27 2019) build/sdcc-16f87   27.12.2019  16:44:07        PAGE 25


LOC    OBJECT CODE    LINE  SOURCE TEXT
  VALUE

0021   11??           01261         BCF     _PORTCbits,3
0022                  01262 _00002_DS_:
0022   1C03           01263         BTFSS   STATUS,0
0023   2???           01264         GOTO    _00003_DS_
0024   0??? 0???      01265         BANKSEL _PORTCbits
0026   15??           01266         BSF     _PORTCbits,3
                      01267 ;;shiftRight_Left2ResultLit:5323: shCount=1, size=1, sign=0, same=1, offr=0
0027                  01268 _00003_DS_:
                      01269 ;       .line   129; "onewire.c"        val >>= 1; // shift_right(&val, 1, 0);
0027   1003           01270         BCF     STATUS,0
0028   0??? 0???      01271         BANKSEL r0x106C
002A   0C??           01272         RRF     r0x106C,F
                      01273 ;       .line   131; "onewire.c"        delay_us(60);
002B   303C           01274         MOVLW   0x3c
002C   0??? 0???      01275         PAGESEL _delay_us
002E   2???           01276         CALL    _delay_us
002F   0??? 0???      01277         PAGESEL $
                      01278 ;       .line   133; "onewire.c"        if((i == 7) && (power_on == 1)) {
0031   0??? 0???      01279         BANKSEL r0x106D
0033   08??           01280         MOVF    r0x106D,W
0034   3A07           01281         XORLW   0x07
0035   1D03           01282         BTFSS   STATUS,2
0036   2???           01283         GOTO    _00148_DS_
0037   08??           01284         MOVF    r0x106F,W
0038   3A00           01285         XORLW   0x00
0039   1D03           01286         BTFSS   STATUS,2
003A   2???           01287         GOTO    _00148_DS_
003B   08??           01288         MOVF    r0x106E,W
003C   1903           01289         BTFSC   STATUS,2
003D   2???           01290         GOTO    _00148_DS_
                      01291 ;       .line   134; "onewire.c"        DQ_BIT = 1;
003E   0??? 0???      01292         BANKSEL _PORTCbits
0040   15??           01293         BSF     _PORTCbits,3
0041   2???           01294         GOTO    _00153_DS_
0042                  01295 _00148_DS_:
                      01296 ;       .line   136; "onewire.c"        DQ_TRIS = 1;
0042   0??? 0???      01297         BANKSEL _TRISCbits
0044   15??           01298         BSF     _TRISCbits,3
                      01299 ;       .line   138; "onewire.c"        delay_us(2);
0045   3002           01300         MOVLW   0x02
0046   0??? 0???      01301         PAGESEL _delay_us
0048   2???           01302         CALL    _delay_us
0049   0??? 0???      01303         PAGESEL $
004B                  01304 _00153_DS_:
                      01305 ;       .line   122; "onewire.c"        for(i = 0; i < 8; i++) {
004B   0??? 0???      01306         BANKSEL r0x106D
004D   0A??           01307         INCF    r0x106D,F
004E   1903           01308         BTFSC   STATUS,2
004F   0A??           01309         INCF    r0x106F,F
                      01310 ;;signed compare: left < lit(0x8=8), size=2, mask=ffff
0050   08??           01311         MOVF    r0x106F,W
0051   3E80           01312         ADDLW   0x80
0052   3E80           01313         ADDLW   0x80
gpasm-1.5.2 #0 (Dec 27 2019) build/sdcc-16f87   27.12.2019  16:44:07        PAGE 26


LOC    OBJECT CODE    LINE  SOURCE TEXT
  VALUE

0053   1D03           01314         BTFSS   STATUS,2
0054   2???           01315         GOTO    _00170_DS_
0055   3008           01316         MOVLW   0x08
0056   02??           01317         SUBWF   r0x106D,W
0057                  01318 _00170_DS_:
0057   1C03           01319         BTFSS   STATUS,0
0058   2???           01320         GOTO    _00152_DS_
                      01321 ;;genSkipc:3257: created from rifx:0x7ffe9e83b960
                      01322 ;       .line   141; "onewire.c"        }
0059   0008           01323         RETURN  
                      01324 ; exit point of _ow_write_byte
                      01325 
                      01326 ;***
                      01327 ;  pBlock Stats: dbName = C
                      01328 ;***
                      01329 ;has an exit
                      01330 ;functions called:
                      01331 ;   _ow_read_bit
                      01332 ;   _delay_us
                      01333 ;   _ow_read_bit
                      01334 ;   _delay_us
                      01335 ;4 compiler assigned registers:
                      01336 ;   r0x108F
                      01337 ;   r0x1090
                      01338 ;   r0x1091
                      01339 ;   r0x1092
                      01340 ;; Starting pCode block
                      01341 S_onewire__ow_read_byte code
0000                  01342 _ow_read_byte:
                      01343 ; 2 exit points
                      01344 ;       .line   103; "onewire.c"        uint8_t val = 0;
0000   0??? 0???      01345         BANKSEL r0x108F
0002   01??           01346         CLRF    r0x108F
                      01347 ;       .line   105; "onewire.c"        for(i = 0; i < 8; i++) {
0003   01??           01348         CLRF    r0x1090
0004                  01349 _00122_DS_:
                      01350 ;       .line   106; "onewire.c"        if(ow_read_bit())
0004   0??? 0???      01351         PAGESEL _ow_read_bit
0006   2???           01352         CALL    _ow_read_bit
0007   0??? 0???      01353         PAGESEL $
0009   0??? 0???      01354         BANKSEL r0x1091
000B   00??           01355         MOVWF   r0x1091
000C   08??           01356         MOVF    r0x1091,W
000D   1903           01357         BTFSC   STATUS,2
000E   2???           01358         GOTO    _00120_DS_
                      01359 ;;103   MOVF    r0x1090,W
                      01360 ;       .line   107; "onewire.c"        val |= (0x01 << i);
000F   3001           01361         MOVLW   0x01
0010   00??           01362         MOVWF   r0x1092
                      01363 ;;102   MOVF    r0x1091,W
0011   08??           01364         MOVF    r0x1090,W
0012   00??           01365         MOVWF   r0x1091
0013   1B??           01366         BTFSC   r0x1091,7
gpasm-1.5.2 #0 (Dec 27 2019) build/sdcc-16f87   27.12.2019  16:44:07        PAGE 27


LOC    OBJECT CODE    LINE  SOURCE TEXT
  VALUE

0014   2???           01367         GOTO    _00142_DS_
0015   3C00           01368         SUBLW   0x00
0016   1903           01369         BTFSC   STATUS,2
0017   2???           01370         GOTO    _00140_DS_
0018                  01371 _00139_DS_:
0018   0??? 0???      01372         BANKSEL r0x1092
001A   0D??           01373         RLF     r0x1092,F
001B   3E01           01374         ADDLW   0x01
001C   1C03           01375         BTFSS   STATUS,0
001D   2???           01376         GOTO    _00139_DS_
001E   2???           01377         GOTO    _00140_DS_
001F                  01378 _00142_DS_:
001F   1003           01379         BCF     STATUS,0
0020   0??? 0???      01380         BANKSEL r0x1092
0022   1B??           01381         BTFSC   r0x1092,7
0023   1403           01382         BSF     STATUS,0
0024   0C??           01383         RRF     r0x1092,F
0025   3E01           01384         ADDLW   0x01
0026   1C03           01385         BTFSS   STATUS,0
0027   2???           01386         GOTO    _00142_DS_
0028                  01387 _00140_DS_:
0028   0??? 0???      01388         BANKSEL r0x108F
002A   08??           01389         MOVF    r0x108F,W
002B   00??           01390         MOVWF   r0x1091
002C   04??           01391         IORWF   r0x1092,W
002D   00??           01392         MOVWF   r0x108F
002E                  01393 _00120_DS_:
                      01394 ;       .line   109; "onewire.c"        delay_us(120); // To finish time slot
002E   3078           01395         MOVLW   0x78
002F   0??? 0???      01396         PAGESEL _delay_us
0031   2???           01397         CALL    _delay_us
0032   0??? 0???      01398         PAGESEL $
                      01399 ;       .line   105; "onewire.c"        for(i = 0; i < 8; i++) {
0034   0??? 0???      01400         BANKSEL r0x1090
0036   0A??           01401         INCF    r0x1090,F
                      01402 ;;unsigned compare: left < lit(0x8=8), size=1
0037   3008           01403         MOVLW   0x08
0038   02??           01404         SUBWF   r0x1090,W
0039   1C03           01405         BTFSS   STATUS,0
003A   2???           01406         GOTO    _00122_DS_
                      01407 ;;genSkipc:3257: created from rifx:0x7ffe9e83b960
                      01408 ;       .line   112; "onewire.c"        return val;
003B   08??           01409         MOVF    r0x108F,W
                      01410 ;       .line   113; "onewire.c"        }
003C   0008           01411         RETURN  
                      01412 ; exit point of _ow_read_byte
                      01413 
                      01414 ;***
                      01415 ;  pBlock Stats: dbName = C
                      01416 ;***
                      01417 ;has an exit
                      01418 ;functions called:
                      01419 ;   _delay_us
gpasm-1.5.2 #0 (Dec 27 2019) build/sdcc-16f87   27.12.2019  16:44:07        PAGE 28


LOC    OBJECT CODE    LINE  SOURCE TEXT
  VALUE

                      01420 ;   _delay_us
                      01421 ;   _delay_us
                      01422 ;   _delay_us
                      01423 ;1 compiler assigned register :
                      01424 ;   r0x1077
                      01425 ;; Starting pCode block
                      01426 S_onewire__ow_write_bit code
0000                  01427 _ow_write_bit:
                      01428 ; 2 exit points
                      01429 ;       .line   84; "onewire.c" ow_write_bit(uint8_t bitval) {
0000   0??? 0???      01430         BANKSEL r0x1077
0002   00??           01431         MOVWF   r0x1077
                      01432 ;       .line   85; "onewire.c" DQ_BIT = 0;
0003   0??? 0???      01433         BANKSEL _PORTCbits
0005   11??           01434         BCF     _PORTCbits,3
                      01435 ;       .line   86; "onewire.c" DQ_TRIS = 0;
0006   0??? 0???      01436         BANKSEL _TRISCbits
0008   11??           01437         BCF     _TRISCbits,3
                      01438 ;       .line   88; "onewire.c" if(bitval == 1) {
0009   0??? 0???      01439         BANKSEL r0x1077
000B   08??           01440         MOVF    r0x1077,W
000C   3A01           01441         XORLW   0x01
000D   1D03           01442         BTFSS   STATUS,2
000E   2???           01443         GOTO    _00114_DS_
                      01444 ;       .line   89; "onewire.c" delay_us(1); // 1uS min. Code relied on 8051 being slow.
000F   3001           01445         MOVLW   0x01
0010   0??? 0???      01446         PAGESEL _delay_us
0012   2???           01447         CALL    _delay_us
0013   0??? 0???      01448         PAGESEL $
                      01449 ;       .line   91; "onewire.c" DQ_TRIS = 1;
0015   0??? 0???      01450         BANKSEL _TRISCbits
0017   15??           01451         BSF     _TRISCbits,3
0018                  01452 _00114_DS_:
                      01453 ;       .line   94; "onewire.c" delay_us(105); // Wait for end of timeslot
0018   3069           01454         MOVLW   0x69
0019   0??? 0???      01455         PAGESEL _delay_us
001B   2???           01456         CALL    _delay_us
001C   0??? 0???      01457         PAGESEL $
                      01458 ;       .line   96; "onewire.c" DQ_TRIS = 1;
001E   0??? 0???      01459         BANKSEL _TRISCbits
0020   15??           01460         BSF     _TRISCbits,3
                      01461 ;       .line   97; "onewire.c" }
0021   0008           01462         RETURN  
                      01463 ; exit point of _ow_write_bit
                      01464 
                      01465 ;***
                      01466 ;  pBlock Stats: dbName = C
                      01467 ;***
                      01468 ;has an exit
                      01469 ;functions called:
                      01470 ;   _delay_us
                      01471 ;   _delay_us
                      01472 ;   _delay_us
gpasm-1.5.2 #0 (Dec 27 2019) build/sdcc-16f87   27.12.2019  16:44:07        PAGE 29


LOC    OBJECT CODE    LINE  SOURCE TEXT
  VALUE

                      01473 ;   _delay_us
                      01474 ;1 compiler assigned register :
                      01475 ;   r0x1077
                      01476 ;; Starting pCode block
                      01477 S_onewire__ow_read_bit  code
0000                  01478 _ow_read_bit:
                      01479 ; 2 exit points
                      01480 ;       .line   70; "onewire.c" DQ_BIT = 0;
0000   0??? 0???      01481         BANKSEL _PORTCbits
0002   11??           01482         BCF     _PORTCbits,3
                      01483 ;       .line   71; "onewire.c" DQ_TRIS = 0;
0003   0??? 0???      01484         BANKSEL _TRISCbits
0005   11??           01485         BCF     _TRISCbits,3
                      01486 ;       .line   73; "onewire.c" delay_us(3); // Added, 1uS min. Code relied on 8051 being slow.
0006   3003           01487         MOVLW   0x03
0007   0??? 0???      01488         PAGESEL _delay_us
0009   2???           01489         CALL    _delay_us
000A   0??? 0???      01490         PAGESEL $
                      01491 ;       .line   75; "onewire.c" DQ_TRIS = 1;
000C   0??? 0???      01492         BANKSEL _TRISCbits
000E   15??           01493         BSF     _TRISCbits,3
                      01494 ;       .line   77; "onewire.c" delay_us(5); // Read within 15uS from start of time slot
000F   3005           01495         MOVLW   0x05
0010   0??? 0???      01496         PAGESEL _delay_us
0012   2???           01497         CALL    _delay_us
0013   0??? 0???      01498         PAGESEL $
                      01499 ;       .line   79; "onewire.c" return DQ_BIT; // input(DQ);
0015   0??? 0???      01500         BANKSEL r0x1077
0017   01??           01501         CLRF    r0x1077
0018   0??? 0???      01502         BANKSEL _PORTCbits
001A   1D??           01503         BTFSS   _PORTCbits,3
001B   2???           01504         GOTO    _00004_DS_
001C   0??? 0???      01505         BANKSEL r0x1077
001E   0A??           01506         INCF    r0x1077,F
001F                  01507 _00004_DS_:
001F   0??? 0???      01508         BANKSEL r0x1077
0021   08??           01509         MOVF    r0x1077,W
                      01510 ;       .line   80; "onewire.c" }
0022   0008           01511         RETURN  
                      01512 ; exit point of _ow_read_bit
                      01513 
                      01514 ;***
                      01515 ;  pBlock Stats: dbName = C
                      01516 ;***
                      01517 ;has an exit
                      01518 ;functions called:
                      01519 ;   _delay_us
                      01520 ;   _delay_us
                      01521 ;   _delay_us
                      01522 ;   _delay_us
                      01523 ;   _delay_us
                      01524 ;   _delay_us
                      01525 ;2 compiler assigned registers:
gpasm-1.5.2 #0 (Dec 27 2019) build/sdcc-16f87   27.12.2019  16:44:07        PAGE 30


LOC    OBJECT CODE    LINE  SOURCE TEXT
  VALUE

                      01526 ;   r0x106C
                      01527 ;   r0x106D
                      01528 ;; Starting pCode block
                      01529 S_onewire__ow_reset     code
0000                  01530 _ow_reset:
                      01531 ; 2 exit points
                      01532 ;       .line   50; "onewire.c" DQ_BIT = 0;
0000   0??? 0???      01533         BANKSEL _PORTCbits
0002   11??           01534         BCF     _PORTCbits,3
                      01535 ;       .line   51; "onewire.c" DQ_TRIS = 0;
0003   0??? 0???      01536         BANKSEL _TRISCbits
0005   11??           01537         BCF     _TRISCbits,3
                      01538 ;       .line   53; "onewire.c" delay_us(488); // Min. 480uS
0006   30E8           01539         MOVLW   0xe8
0007   0??? 0???      01540         PAGESEL _delay_us
0009   2???           01541         CALL    _delay_us
000A   0??? 0???      01542         PAGESEL $
                      01543 ;       .line   55; "onewire.c" DQ_TRIS = 1;
000C   0??? 0???      01544         BANKSEL _TRISCbits
000E   15??           01545         BSF     _TRISCbits,3
                      01546 ;       .line   57; "onewire.c" delay_us(72); // Takes 15 to 60uS for devices to respond
000F   3048           01547         MOVLW   0x48
0010   0??? 0???      01548         PAGESEL _delay_us
0012   2???           01549         CALL    _delay_us
0013   0??? 0???      01550         PAGESEL $
                      01551 ;       .line   59; "onewire.c" presence = DQ_BIT;
0015   0??? 0???      01552         BANKSEL r0x106C
0017   01??           01553         CLRF    r0x106C
0018   0??? 0???      01554         BANKSEL _PORTCbits
001A   1D??           01555         BTFSS   _PORTCbits,3
001B   2???           01556         GOTO    _00005_DS_
001C   0??? 0???      01557         BANKSEL r0x106C
001E   0A??           01558         INCF    r0x106C,F
001F                  01559 _00005_DS_:
001F   0??? 0???      01560         BANKSEL r0x106C
0021   08??           01561         MOVF    r0x106C,W
0022   00??           01562         MOVWF   r0x106D
                      01563 ;       .line   61; "onewire.c" delay_us(424); // Wait for end of timeslot
0023   30A8           01564         MOVLW   0xa8
0024   0??? 0???      01565         PAGESEL _delay_us
0026   2???           01566         CALL    _delay_us
0027   0??? 0???      01567         PAGESEL $
                      01568 ;       .line   63; "onewire.c" return presence;
0029   0??? 0???      01569         BANKSEL r0x106D
002B   08??           01570         MOVF    r0x106D,W
                      01571 ;       .line   64; "onewire.c" }
002C   0008           01572         RETURN  
                      01573 ; exit point of _ow_reset
                      01574 
                      01575 
                      01576 ;       code size estimation:
                      01577 ;         496+  185 =   681 instructions ( 1732 byte)
                      01578 
gpasm-1.5.2 #0 (Dec 27 2019) build/sdcc-16f87   27.12.2019  16:44:07        PAGE 31


LOC    OBJECT CODE    LINE  SOURCE TEXT
  VALUE

                      01579         end
gpasm-1.5.2 #0 (Dec 27 2019) build/sdcc-16f87   27.12.2019  16:44:07        PAGE 32


SYMBOL TABLE
  LABEL                              TYPE        VALUE         VALUE          VALUE
                                                 (hex)         (dec)          (text)

ACKDT                             CONSTANT      00000005              5
ACKEN                             CONSTANT      00000004              4
ACKSTAT                           CONSTANT      00000006              6
ADCON0                            CONSTANT      0000001F             31
ADCON1                            CONSTANT      0000009F            159
ADCS0                             CONSTANT      00000006              6
ADCS1                             CONSTANT      00000007              7
ADCS2                             CONSTANT      00000006              6
ADDEN                             CONSTANT      00000003              3
ADFM                              CONSTANT      00000007              7
ADIE                              CONSTANT      00000006              6
ADIF                              CONSTANT      00000006              6
ADON                              CONSTANT      00000000              0
ADRESH                            CONSTANT      0000001E             30
ADRESL                            CONSTANT      0000009E            158
BCLIE                             CONSTANT      00000003              3
BCLIF                             CONSTANT      00000003              3
BF                                CONSTANT      00000000              0
BRGH                              CONSTANT      00000002              2
C                                 CONSTANT      00000000              0
C1INV                             CONSTANT      00000004              4
C1OUT                             CONSTANT      00000006              6
C2INV                             CONSTANT      00000005              5
C2OUT                             CONSTANT      00000007              7
CCP1CON                           CONSTANT      00000017             23
CCP1IE                            CONSTANT      00000002              2
CCP1IF                            CONSTANT      00000002              2
CCP1M0                            CONSTANT      00000000              0
CCP1M1                            CONSTANT      00000001              1
CCP1M2                            CONSTANT      00000002              2
CCP1M3                            CONSTANT      00000003              3
CCP1X                             CONSTANT      00000005              5
CCP1Y                             CONSTANT      00000004              4
CCP2CON                           CONSTANT      0000001D             29
CCP2IE                            CONSTANT      00000000              0
CCP2IF                            CONSTANT      00000000              0
CCP2M0                            CONSTANT      00000000              0
CCP2M1                            CONSTANT      00000001              1
CCP2M2                            CONSTANT      00000002              2
CCP2M3                            CONSTANT      00000003              3
CCP2X                             CONSTANT      00000005              5
CCP2Y                             CONSTANT      00000004              4
CCPR1                             CONSTANT      00000015             21
CCPR1H                            CONSTANT      00000016             22
CCPR1L                            CONSTANT      00000015             21
CCPR2                             CONSTANT      0000001B             27
CCPR2H                            CONSTANT      0000001C             28
CCPR2L                            CONSTANT      0000001B             27
CHS0                              CONSTANT      00000003              3
CHS1                              CONSTANT      00000004              4
CHS2                              CONSTANT      00000005              5
CIS                               CONSTANT      00000003              3
gpasm-1.5.2 #0 (Dec 27 2019) build/sdcc-16f87   27.12.2019  16:44:07        PAGE 33


SYMBOL TABLE
  LABEL                              TYPE        VALUE         VALUE          VALUE
                                                 (hex)         (dec)          (text)

CKE                               CONSTANT      00000006              6
CKP                               CONSTANT      00000004              4
CM0                               CONSTANT      00000000              0
CM1                               CONSTANT      00000001              1
CM2                               CONSTANT      00000002              2
CMCON                             CONSTANT      0000009C            156
CMIE                              CONSTANT      00000006              6
CMIF                              CONSTANT      00000006              6
CREN                              CONSTANT      00000004              4
CSRC                              CONSTANT      00000007              7
CVR0                              CONSTANT      00000000              0
CVR1                              CONSTANT      00000001              1
CVR2                              CONSTANT      00000002              2
CVR3                              CONSTANT      00000003              3
CVRCON                            CONSTANT      0000009D            157
CVREN                             CONSTANT      00000007              7
CVROE                             CONSTANT      00000006              6
CVRR                              CONSTANT      00000005              5
D                                 CONSTANT      00000005              5
DATA_ADDRESS                      CONSTANT      00000005              5
DC                                CONSTANT      00000001              1
D_A                               CONSTANT      00000005              5
D_NOT_A                           CONSTANT      00000005              5
EEADR                             CONSTANT      0000010D            269
EEADRH                            CONSTANT      0000010F            271
EECON1                            CONSTANT      0000018C            396
EECON2                            CONSTANT      0000018D            397
EEDATA                            CONSTANT      0000010C            268
EEDATH                            CONSTANT      0000010E            270
EEIE                              CONSTANT      00000004              4
EEIF                              CONSTANT      00000004              4
EEPGD                             CONSTANT      00000007              7
F                                 CONSTANT      00000001              1
FERR                              CONSTANT      00000002              2
FSR                               CONSTANT      00000004              4
GCEN                              CONSTANT      00000007              7
GIE                               CONSTANT      00000007              7
GO                                CONSTANT      00000002              2
GO_DONE                           CONSTANT      00000002              2
GO_NOT_DONE                       CONSTANT      00000002              2
I2C_DATA                          CONSTANT      00000005              5
I2C_READ                          CONSTANT      00000002              2
I2C_START                         CONSTANT      00000003              3
I2C_STOP                          CONSTANT      00000004              4
INDF                              CONSTANT      00000000              0
INTCON                            CONSTANT      0000000B             11
INTE                              CONSTANT      00000004              4
INTEDG                            CONSTANT      00000006              6
INTF                              CONSTANT      00000001              1
IRP                               CONSTANT      00000007              7
NOT_A                             CONSTANT      00000005              5
NOT_ADDRESS                       CONSTANT      00000005              5
gpasm-1.5.2 #0 (Dec 27 2019) build/sdcc-16f87   27.12.2019  16:44:07        PAGE 34


SYMBOL TABLE
  LABEL                              TYPE        VALUE         VALUE          VALUE
                                                 (hex)         (dec)          (text)

NOT_BO                            CONSTANT      00000000              0
NOT_BOR                           CONSTANT      00000000              0
NOT_DONE                          CONSTANT      00000002              2
NOT_PD                            CONSTANT      00000003              3
NOT_POR                           CONSTANT      00000001              1
NOT_RBPU                          CONSTANT      00000007              7
NOT_RC8                           CONSTANT      00000006              6
NOT_T1SYNC                        CONSTANT      00000002              2
NOT_TO                            CONSTANT      00000004              4
NOT_TX8                           CONSTANT      00000006              6
NOT_W                             CONSTANT      00000002              2
NOT_WRITE                         CONSTANT      00000002              2
OERR                              CONSTANT      00000001              1
OPTION_REG                        CONSTANT      00000081            129
P                                 CONSTANT      00000004              4
PCFG0                             CONSTANT      00000000              0
PCFG1                             CONSTANT      00000001              1
PCFG2                             CONSTANT      00000002              2
PCFG3                             CONSTANT      00000003              3
PCL                               CONSTANT      00000002              2
PCLATH                            CONSTANT      0000000A             10
PCON                              CONSTANT      0000008E            142
PEIE                              CONSTANT      00000006              6
PEN                               CONSTANT      00000002              2
PIE1                              CONSTANT      0000008C            140
PIE2                              CONSTANT      0000008D            141
PIR1                              CONSTANT      0000000C             12
PIR2                              CONSTANT      0000000D             13
PORTA                             CONSTANT      00000005              5
PORTB                             CONSTANT      00000006              6
PORTC                             CONSTANT      00000007              7
PR2                               CONSTANT      00000092            146
PS0                               CONSTANT      00000000              0
PS1                               CONSTANT      00000001              1
PS2                               CONSTANT      00000002              2
PSA                               CONSTANT      00000003              3
PSAVE                             EXTERNAL      00000000              0
R                                 CONSTANT      00000002              2
RA0                               CONSTANT      00000000              0
RA1                               CONSTANT      00000001              1
RA2                               CONSTANT      00000002              2
RA3                               CONSTANT      00000003              3
RA4                               CONSTANT      00000004              4
RA5                               CONSTANT      00000005              5
RB0                               CONSTANT      00000000              0
RB1                               CONSTANT      00000001              1
RB2                               CONSTANT      00000002              2
RB3                               CONSTANT      00000003              3
RB4                               CONSTANT      00000004              4
RB5                               CONSTANT      00000005              5
RB6                               CONSTANT      00000006              6
RB7                               CONSTANT      00000007              7
gpasm-1.5.2 #0 (Dec 27 2019) build/sdcc-16f87   27.12.2019  16:44:07        PAGE 35


SYMBOL TABLE
  LABEL                              TYPE        VALUE         VALUE          VALUE
                                                 (hex)         (dec)          (text)

RBIE                              CONSTANT      00000003              3
RBIF                              CONSTANT      00000000              0
RC0                               CONSTANT      00000000              0
RC1                               CONSTANT      00000001              1
RC2                               CONSTANT      00000002              2
RC3                               CONSTANT      00000003              3
RC4                               CONSTANT      00000004              4
RC5                               CONSTANT      00000005              5
RC6                               CONSTANT      00000006              6
RC7                               CONSTANT      00000007              7
RC8_9                             CONSTANT      00000006              6
RC9                               CONSTANT      00000006              6
RCD8                              CONSTANT      00000000              0
RCEN                              CONSTANT      00000003              3
RCIE                              CONSTANT      00000005              5
RCIF                              CONSTANT      00000005              5
RCREG                             CONSTANT      0000001A             26
RCSTA                             CONSTANT      00000018             24
RD                                CONSTANT      00000000              0
READ_WRITE                        CONSTANT      00000002              2
RP0                               CONSTANT      00000005              5
RP1                               CONSTANT      00000006              6
RSEN                              CONSTANT      00000001              1
RX9                               CONSTANT      00000006              6
RX9D                              CONSTANT      00000000              0
R_NOT_W                           CONSTANT      00000002              2
R_W                               CONSTANT      00000002              2
S                                 CONSTANT      00000003              3
SEN                               CONSTANT      00000000              0
SMP                               CONSTANT      00000007              7
SPBRG                             CONSTANT      00000099            153
SPEN                              CONSTANT      00000007              7
SREN                              CONSTANT      00000005              5
SSAVE                             EXTERNAL      00000000              0
SSPADD                            CONSTANT      00000093            147
SSPBUF                            CONSTANT      00000013             19
SSPCON                            CONSTANT      00000014             20
SSPCON2                           CONSTANT      00000091            145
SSPEN                             CONSTANT      00000005              5
SSPIE                             CONSTANT      00000003              3
SSPIF                             CONSTANT      00000003              3
SSPM0                             CONSTANT      00000000              0
SSPM1                             CONSTANT      00000001              1
SSPM2                             CONSTANT      00000002              2
SSPM3                             CONSTANT      00000003              3
SSPOV                             CONSTANT      00000006              6
SSPSTAT                           CONSTANT      00000094            148
STATUS                            CONSTANT      00000003              3
STK00                             EXTERNAL      00000000              0
STK01                             EXTERNAL      00000000              0
STK02                             EXTERNAL      00000000              0
STK03                             EXTERNAL      00000000              0
gpasm-1.5.2 #0 (Dec 27 2019) build/sdcc-16f87   27.12.2019  16:44:07        PAGE 36


SYMBOL TABLE
  LABEL                              TYPE        VALUE         VALUE          VALUE
                                                 (hex)         (dec)          (text)

STK04                             EXTERNAL      00000000              0
STK05                             EXTERNAL      00000000              0
STK06                             EXTERNAL      00000000              0
STK07                             EXTERNAL      00000000              0
STK08                             EXTERNAL      00000000              0
STK09                             EXTERNAL      00000000              0
STK10                             EXTERNAL      00000000              0
STK11                             EXTERNAL      00000000              0
STK12                             EXTERNAL      00000000              0
SYNC                              CONSTANT      00000004              4
T0CS                              CONSTANT      00000005              5
T0IE                              CONSTANT      00000005              5
T0IF                              CONSTANT      00000002              2
T0SE                              CONSTANT      00000004              4
T1CKPS0                           CONSTANT      00000004              4
T1CKPS1                           CONSTANT      00000005              5
T1CON                             CONSTANT      00000010             16
T1INSYNC                          CONSTANT      00000002              2
T1OSCEN                           CONSTANT      00000003              3
T1SYNC                            CONSTANT      00000002              2
T2CKPS0                           CONSTANT      00000000              0
T2CKPS1                           CONSTANT      00000001              1
T2CON                             CONSTANT      00000012             18
TMR0                              CONSTANT      00000001              1
TMR0IE                            CONSTANT      00000005              5
TMR0IF                            CONSTANT      00000002              2
TMR1                              CONSTANT      0000000E             14
TMR1CS                            CONSTANT      00000001              1
TMR1H                             CONSTANT      0000000F             15
TMR1IE                            CONSTANT      00000000              0
TMR1IF                            CONSTANT      00000000              0
TMR1L                             CONSTANT      0000000E             14
TMR1ON                            CONSTANT      00000000              0
TMR2                              CONSTANT      00000011             17
TMR2IE                            CONSTANT      00000001              1
TMR2IF                            CONSTANT      00000001              1
TMR2ON                            CONSTANT      00000002              2
TOUTPS0                           CONSTANT      00000003              3
TOUTPS1                           CONSTANT      00000004              4
TOUTPS2                           CONSTANT      00000005              5
TOUTPS3                           CONSTANT      00000006              6
TRISA                             CONSTANT      00000085            133
TRISA0                            CONSTANT      00000000              0
TRISA1                            CONSTANT      00000001              1
TRISA2                            CONSTANT      00000002              2
TRISA3                            CONSTANT      00000003              3
TRISA4                            CONSTANT      00000004              4
TRISA5                            CONSTANT      00000005              5
TRISB                             CONSTANT      00000086            134
TRISB0                            CONSTANT      00000000              0
TRISB1                            CONSTANT      00000001              1
TRISB2                            CONSTANT      00000002              2
gpasm-1.5.2 #0 (Dec 27 2019) build/sdcc-16f87   27.12.2019  16:44:07        PAGE 37


SYMBOL TABLE
  LABEL                              TYPE        VALUE         VALUE          VALUE
                                                 (hex)         (dec)          (text)

TRISB3                            CONSTANT      00000003              3
TRISB4                            CONSTANT      00000004              4
TRISB5                            CONSTANT      00000005              5
TRISB6                            CONSTANT      00000006              6
TRISB7                            CONSTANT      00000007              7
TRISC                             CONSTANT      00000087            135
TRISC0                            CONSTANT      00000000              0
TRISC1                            CONSTANT      00000001              1
TRISC2                            CONSTANT      00000002              2
TRISC3                            CONSTANT      00000003              3
TRISC4                            CONSTANT      00000004              4
TRISC5                            CONSTANT      00000005              5
TRISC6                            CONSTANT      00000006              6
TRISC7                            CONSTANT      00000007              7
TRMT                              CONSTANT      00000001              1
TX8_9                             CONSTANT      00000006              6
TX9                               CONSTANT      00000006              6
TX9D                              CONSTANT      00000000              0
TXD8                              CONSTANT      00000000              0
TXEN                              CONSTANT      00000005              5
TXIE                              CONSTANT      00000004              4
TXIF                              CONSTANT      00000004              4
TXREG                             CONSTANT      00000019             25
TXSTA                             CONSTANT      00000098            152
UA                                CONSTANT      00000001              1
W                                 CONSTANT      00000000              0
WCOL                              CONSTANT      00000007              7
WR                                CONSTANT      00000001              1
WREN                              CONSTANT      00000002              2
WRERR                             CONSTANT      00000003              3
WSAVE                             EXTERNAL      00000000              0
Z                                 CONSTANT      00000002              2
_00001_DS_                        ADDRESS       0000014D            333
_00002_DS_                        ADDRESS       00000022             34
_00003_DS_                        ADDRESS       00000027             39
_00004_DS_                        ADDRESS       0000001F             31
_00005_DS_                        ADDRESS       0000001F             31
_00114_DS_                        ADDRESS       00000018             24
_00120_DS_                        ADDRESS       0000002E             46
_00122_DS_                        ADDRESS       00000004              4
_00139_DS_                        ADDRESS       00000018             24
_00140_DS_                        ADDRESS       00000028             40
_00142_DS_                        ADDRESS       0000001F             31
_00148_DS_                        ADDRESS       00000042             66
_00152_DS_                        ADDRESS       0000000C             12
_00153_DS_                        ADDRESS       0000004B             75
_00170_DS_                        ADDRESS       00000057             87
_00179_DS_                        ADDRESS       00000019             25
_00180_DS_                        ADDRESS       0000001E             30
_00183_DS_                        ADDRESS       0000003B             59
_00187_DS_                        ADDRESS       0000008E            142
_00188_DS_                        ADDRESS       00000099            153
gpasm-1.5.2 #0 (Dec 27 2019) build/sdcc-16f87   27.12.2019  16:44:07        PAGE 38


SYMBOL TABLE
  LABEL                              TYPE        VALUE         VALUE          VALUE
                                                 (hex)         (dec)          (text)

_00192_DS_                        ADDRESS       00000057             87
_00193_DS_                        ADDRESS       000000A1            161
_00195_DS_                        ADDRESS       000000CD            205
_00196_DS_                        ADDRESS       000000F4            244
_00202_DS_                        ADDRESS       0000002B             43
_00203_DS_                        ADDRESS       00000126            294
_00204_DS_                        ADDRESS       0000012C            300
_00205_DS_                        ADDRESS       00000138            312
_00206_DS_                        ADDRESS       0000013C            316
_00207_DS_                        ADDRESS       00000151            337
_00209_DS_                        ADDRESS       00000154            340
_00211_DS_                        ADDRESS       00000085            133
_00212_DS_                        ADDRESS       00000089            137
_00278_DS_                        ADDRESS       00000019             25
_00285_DS_                        ADDRESS       0000001F             31
_00287_DS_                        ADDRESS       00000076            118
_00293_DS_                        ADDRESS       00000010             16
_00295_DS_                        ADDRESS       00000030             48
_00297_DS_                        ADDRESS       00000058             88
_ADCON0                           EXTERNAL      00000000              0
_ADCON0bits                       EXTERNAL      00000000              0
_ADCON1                           EXTERNAL      00000000              0
_ADCON1bits                       EXTERNAL      00000000              0
_ADRESH                           EXTERNAL      00000000              0
_ADRESL                           EXTERNAL      00000000              0
_BODEN_OFF                        CONSTANT      00003FBF          16319
_BODEN_ON                         CONSTANT      00003FFF          16383
_BOREN_OFF                        CONSTANT      00003FBF          16319
_BOREN_ON                         CONSTANT      00003FFF          16383
_CCP1CON                          EXTERNAL      00000000              0
_CCP1CONbits                      EXTERNAL      00000000              0
_CCP2CON                          EXTERNAL      00000000              0
_CCP2CONbits                      EXTERNAL      00000000              0
_CCPR1                            EXTERNAL      00000000              0
_CCPR1H                           EXTERNAL      00000000              0
_CCPR1L                           EXTERNAL      00000000              0
_CCPR2                            EXTERNAL      00000000              0
_CCPR2H                           EXTERNAL      00000000              0
_CCPR2L                           EXTERNAL      00000000              0
_CMCON                            EXTERNAL      00000000              0
_CMCONbits                        EXTERNAL      00000000              0
_CONFIG                           CONSTANT      00002007           8199
_CPD_OFF                          CONSTANT      00003FFF          16383
_CPD_ON                           CONSTANT      00003EFF          16127
_CP_ALL                           CONSTANT      00001FFF           8191
_CP_OFF                           CONSTANT      00003FFF          16383
_CP_ON                            CONSTANT      00001FFF           8191
_CVRCON                           EXTERNAL      00000000              0
_CVRCONbits                       EXTERNAL      00000000              0
_DEBUG_OFF                        CONSTANT      00003FFF          16383
_DEBUG_ON                         CONSTANT      000037FF          14335
_DEVID1                           CONSTANT      00002006           8198
gpasm-1.5.2 #0 (Dec 27 2019) build/sdcc-16f87   27.12.2019  16:44:07        PAGE 39


SYMBOL TABLE
  LABEL                              TYPE        VALUE         VALUE          VALUE
                                                 (hex)         (dec)          (text)

_Delay1KTCYx                      EXTERNAL      00000000              0
_Delay10KTCYx                     EXTERNAL      00000000              0
_Delay10TCYx                      EXTERNAL      00000000              0
_Delay100TCYx                     EXTERNAL      00000000              0
_EEADR                            EXTERNAL      00000000              0
_EEADRH                           EXTERNAL      00000000              0
_EECON1                           EXTERNAL      00000000              0
_EECON1bits                       EXTERNAL      00000000              0
_EECON2                           EXTERNAL      00000000              0
_EEDATA                           EXTERNAL      00000000              0
_EEDATH                           EXTERNAL      00000000              0
_FOSC_EXTRC                       CONSTANT      00003FFF          16383
_FOSC_HS                          CONSTANT      00003FFE          16382
_FOSC_LP                          CONSTANT      00003FFC          16380
_FOSC_XT                          CONSTANT      00003FFD          16381
_FSR                              EXTERNAL      00000000              0
_FoundROM                         STATIC        0000002D             45
_HS_OSC                           CONSTANT      00003FFE          16382
_IDLOC0                           CONSTANT      00002000           8192
_IDLOC1                           CONSTANT      00002001           8193
_IDLOC2                           CONSTANT      00002002           8194
_IDLOC3                           CONSTANT      00002003           8195
_INDF                             EXTERNAL      00000000              0
_INTCON                           EXTERNAL      00000000              0
_INTCONbits                       EXTERNAL      00000000              0
_LP_OSC                           CONSTANT      00003FFC          16380
_LVP_OFF                          CONSTANT      00003F7F          16255
_LVP_ON                           CONSTANT      00003FFF          16383
_OPTION_REG                       EXTERNAL      00000000              0
_OPTION_REGbits                   EXTERNAL      00000000              0
_PCL                              EXTERNAL      00000000              0
_PCLATH                           EXTERNAL      00000000              0
_PCON                             EXTERNAL      00000000              0
_PCONbits                         EXTERNAL      00000000              0
_PIE1                             EXTERNAL      00000000              0
_PIE1bits                         EXTERNAL      00000000              0
_PIE2                             EXTERNAL      00000000              0
_PIE2bits                         EXTERNAL      00000000              0
_PIR1                             EXTERNAL      00000000              0
_PIR1bits                         EXTERNAL      00000000              0
_PIR2                             EXTERNAL      00000000              0
_PIR2bits                         EXTERNAL      00000000              0
_PORTA                            EXTERNAL      00000000              0
_PORTAbits                        EXTERNAL      00000000              0
_PORTB                            EXTERNAL      00000000              0
_PORTBbits                        EXTERNAL      00000000              0
_PORTC                            EXTERNAL      00000000              0
_PORTCbits                        EXTERNAL      00000000              0
_PR2                              EXTERNAL      00000000              0
_PWRTE_OFF                        CONSTANT      00003FFF          16383
_PWRTE_ON                         CONSTANT      00003FF7          16375
_RCREG                            EXTERNAL      00000000              0
gpasm-1.5.2 #0 (Dec 27 2019) build/sdcc-16f87   27.12.2019  16:44:07        PAGE 40


SYMBOL TABLE
  LABEL                              TYPE        VALUE         VALUE          VALUE
                                                 (hex)         (dec)          (text)

_RCSTA                            EXTERNAL      00000000              0
_RCSTAbits                        EXTERNAL      00000000              0
_RC_OSC                           CONSTANT      00003FFF          16383
_RomBytes                         STATIC        00000024             36
_SPBRG                            EXTERNAL      00000000              0
_SSPADD                           EXTERNAL      00000000              0
_SSPBUF                           EXTERNAL      00000000              0
_SSPCON                           EXTERNAL      00000000              0
_SSPCON2                          EXTERNAL      00000000              0
_SSPCON2bits                      EXTERNAL      00000000              0
_SSPCONbits                       EXTERNAL      00000000              0
_SSPSTAT                          EXTERNAL      00000000              0
_SSPSTATbits                      EXTERNAL      00000000              0
_STATUS                           EXTERNAL      00000000              0
_STATUSbits                       EXTERNAL      00000000              0
_S_onewire__ow_access_0006        ADDRESS       00000006              6
_S_onewire__ow_access_0016        ADDRESS       00000016             22
_S_onewire__ow_access_0020        ADDRESS       00000020             32
_S_onewire__ow_access_004E        ADDRESS       0000004E             78
_S_onewire__ow_crc_0022           ADDRESS       00000022             34
_S_onewire__ow_first_0009         ADDRESS       00000009              9
_S_onewire__ow_next_000C          ADDRESS       0000000C             12
_S_onewire__ow_next_0024          ADDRESS       00000024             36
_S_onewire__ow_next_0031          ADDRESS       00000031             49
_S_onewire__ow_next_003F          ADDRESS       0000003F             63
_S_onewire__ow_next_0044          ADDRESS       00000044             68
_S_onewire__ow_next_00FA          ADDRESS       000000FA            250
_S_onewire__ow_next_0120          ADDRESS       00000120            288
_S_onewire__ow_read_bit_000A      ADDRESS       0000000A             10
_S_onewire__ow_read_bit_0013      ADDRESS       00000013             19
_S_onewire__ow_read_byte_0007     ADDRESS       00000007              7
_S_onewire__ow_read_byte_0032     ADDRESS       00000032             50
_S_onewire__ow_reset_000A         ADDRESS       0000000A             10
_S_onewire__ow_reset_0013         ADDRESS       00000013             19
_S_onewire__ow_reset_0027         ADDRESS       00000027             39
_S_onewire__ow_search_0003        ADDRESS       00000003              3
_S_onewire__ow_search_000E        ADDRESS       0000000E             14
_S_onewire__ow_search_0027        ADDRESS       00000027             39
_S_onewire__ow_search_0068        ADDRESS       00000068            104
_S_onewire__ow_write_bit_0013     ADDRESS       00000013             19
_S_onewire__ow_write_bit_001C     ADDRESS       0000001C             28
_S_onewire__ow_write_byte_0016    ADDRESS       00000016             22
_S_onewire__ow_write_byte_002F    ADDRESS       0000002F             47
_S_onewire__ow_write_byte_0049    ADDRESS       00000049             73
_T1CON                            EXTERNAL      00000000              0
_T1CONbits                        EXTERNAL      00000000              0
_T2CON                            EXTERNAL      00000000              0
_T2CONbits                        EXTERNAL      00000000              0
_TMR0                             EXTERNAL      00000000              0
_TMR1                             EXTERNAL      00000000              0
_TMR1H                            EXTERNAL      00000000              0
_TMR1L                            EXTERNAL      00000000              0
gpasm-1.5.2 #0 (Dec 27 2019) build/sdcc-16f87   27.12.2019  16:44:07        PAGE 41


SYMBOL TABLE
  LABEL                              TYPE        VALUE         VALUE          VALUE
                                                 (hex)         (dec)          (text)

_TMR2                             EXTERNAL      00000000              0
_TRISA                            EXTERNAL      00000000              0
_TRISAbits                        EXTERNAL      00000000              0
_TRISB                            EXTERNAL      00000000              0
_TRISBbits                        EXTERNAL      00000000              0
_TRISC                            EXTERNAL      00000000              0
_TRISCbits                        EXTERNAL      00000000              0
_TXREG                            EXTERNAL      00000000              0
_TXSTA                            EXTERNAL      00000000              0
_TXSTAbits                        EXTERNAL      00000000              0
_WDTE_OFF                         CONSTANT      00003FFB          16379
_WDTE_ON                          CONSTANT      00003FFF          16383
_WDT_OFF                          CONSTANT      00003FFB          16379
_WDT_ON                           CONSTANT      00003FFF          16383
_WRT_1FOURTH                      CONSTANT      00003BFF          15359
_WRT_256                          CONSTANT      00003DFF          15871
_WRT_HALF                         CONSTANT      000039FF          14847
_WRT_OFF                          CONSTANT      00003FFF          16383
_XT_OSC                           CONSTANT      00003FFD          16381
__14_BIT                          CONSTANT      00000001              1
__16F876A                         CONSTANT      00000001              1
__ACTIVE_BANK_ADDR                VARIABLE      FFFFFFFF             -1
__ACTIVE_PAGE_ADDR                VARIABLE      FFFFFFFF             -1
__ASSUMED_BANK_ADDR               VARIABLE      FFFFFFFF             -1
__BANK_0                          CONSTANT      00000000              0
__BANK_1                          CONSTANT      00000080            128
__BANK_2                          CONSTANT      00000100            256
__BANK_3                          CONSTANT      00000180            384
__BANK_BITS                       CONSTANT      00000180            384
__BANK_FIRST                      CONSTANT      00000000              0
__BANK_INV                        CONSTANT      FFFFFFFF             -1
__BANK_LAST                       CONSTANT      00000180            384
__BANK_MASK                       CONSTANT      0000007F            127
__BANK_SHIFT                      CONSTANT      00000007              7
__BANK_SIZE                       CONSTANT      00000080            128
__CODE_END                        CONSTANT      00001FFF           8191
__CODE_START                      CONSTANT      00000000              0
__COMMON_RAM_END                  CONSTANT      0000007F            127
__COMMON_RAM_START                CONSTANT      00000070            112
__CONFIG_END                      CONSTANT      00002007           8199
__CONFIG_START                    CONSTANT      00002007           8199
__EEPROM_END                      CONSTANT      000021FF           8703
__EEPROM_START                    CONSTANT      00002100           8448
__GPUTILS_SVN_VERSION             CONSTANT      00000000              0
__GPUTILS_VERSION_MAJOR           CONSTANT      00000001              1
__GPUTILS_VERSION_MICRO           CONSTANT      00000002              2
__GPUTILS_VERSION_MINOR           CONSTANT      00000005              5
__IDLOCS_END                      CONSTANT      00002003           8195
__IDLOCS_START                    CONSTANT      00002000           8192
__NUM_BANKS                       CONSTANT      00000004              4
__NUM_PAGES                       CONSTANT      00000004              4
__PAGE_0                          CONSTANT      00000000              0
gpasm-1.5.2 #0 (Dec 27 2019) build/sdcc-16f87   27.12.2019  16:44:07        PAGE 42


SYMBOL TABLE
  LABEL                              TYPE        VALUE         VALUE          VALUE
                                                 (hex)         (dec)          (text)

__PAGE_1                          CONSTANT      00000800           2048
__PAGE_2                          CONSTANT      00001000           4096
__PAGE_3                          CONSTANT      00001800           6144
__PAGE_BITS                       CONSTANT      00001800           6144
__PAGE_FIRST                      CONSTANT      00000000              0
__PAGE_INV                        CONSTANT      FFFFFFFF             -1
__PAGE_LAST                       CONSTANT      00001800           6144
__PAGE_MASK                       CONSTANT      000007FF           2047
__PAGE_SHIFT                      CONSTANT      0000000B             11
__PAGE_SIZE                       CONSTANT      00000800           2048
__VECTOR_INT                      CONSTANT      00000004              4
__VECTOR_RESET                    CONSTANT      00000000              0
__WHILE_LOOP_COUNT_MAX            CONSTANT      000000FF            255
___fs2schar                       EXTERNAL      00000000              0
___fs2sint                        EXTERNAL      00000000              0
___fs2slong                       EXTERNAL      00000000              0
___fs2uchar                       EXTERNAL      00000000              0
___fs2uint                        EXTERNAL      00000000              0
___fs2ulong                       EXTERNAL      00000000              0
___fsadd                          EXTERNAL      00000000              0
___fsdiv                          EXTERNAL      00000000              0
___fseq                           EXTERNAL      00000000              0
___fsgt                           EXTERNAL      00000000              0
___fslt                           EXTERNAL      00000000              0
___fsmul                          EXTERNAL      00000000              0
___fsneq                          EXTERNAL      00000000              0
___fssub                          EXTERNAL      00000000              0
___schar2fs                       EXTERNAL      00000000              0
___sint2fs                        EXTERNAL      00000000              0
___slong2fs                       EXTERNAL      00000000              0
___uchar2fs                       EXTERNAL      00000000              0
___uint2fs                        EXTERNAL      00000000              0
___ulong2fs                       EXTERNAL      00000000              0
__gptrget1                        EXTERNAL      00000000              0
__mulchar                         EXTERNAL      00000000              0
_cycle_eater                      EXTERNAL      00000000              0
_delay_ms                         EXTERNAL      00000000              0
_delay_us                         EXTERNAL      00000000              0
_doneFlag                         STATIC        00000000              0
_dvar                             EXTERNAL      00000000              0
_lastDiscrep                      STATIC        00000000              0
_numROMs                          STATIC        0000002C             44
_ow_access                        GLOBAL        00000000              0
_ow_crc                           GLOBAL        00000000              0
_ow_crctable                      GLOBAL        00000000              0
_ow_dowcrc                        STATIC        00000023             35
_ow_first                         GLOBAL        00000000              0
_ow_next                          GLOBAL        00000000              0
_ow_read_bit                      GLOBAL        00000000              0
_ow_read_byte                     GLOBAL        00000000              0
_ow_reset                         GLOBAL        00000000              0
_ow_search                        GLOBAL        00000000              0
gpasm-1.5.2 #0 (Dec 27 2019) build/sdcc-16f87   27.12.2019  16:44:07        PAGE 43


SYMBOL TABLE
  LABEL                              TYPE        VALUE         VALUE          VALUE
                                                 (hex)         (dec)          (text)

_ow_write_bit                     GLOBAL        00000000              0
_ow_write_byte                    GLOBAL        00000000              0
r0x106C                           STATIC        00000000              0
r0x106D                           STATIC        00000001              1
r0x106E                           STATIC        00000007              7
r0x106F                           STATIC        00000008              8
r0x107C                           STATIC        0000000C             12
r0x107D                           STATIC        0000000D             13
r0x107E                           STATIC        0000000E             14
r0x107F                           STATIC        0000000F             15
r0x108A                           STATIC        00000018             24
r0x108B                           STATIC        00000019             25
r0x108C                           STATIC        0000001A             26
r0x108D                           STATIC        0000001B             27
r0x108E                           STATIC        0000001C             28
r0x108F                           STATIC        00000003              3
r0x1070                           STATIC        00000009              9
r0x1071                           STATIC        0000001D             29
r0x1072                           STATIC        0000001E             30
r0x1073                           STATIC        0000001F             31
r0x1074                           STATIC        00000020             32
r0x1075                           STATIC        00000021             33
r0x1076                           STATIC        00000022             34
r0x1077                           STATIC        00000002              2
r0x1078                           STATIC        0000000A             10
r0x1079                           STATIC        0000000B             11
r0x1080                           STATIC        00000010             16
r0x1081                           STATIC        00000011             17
r0x1082                           STATIC        00000012             18
r0x1083                           STATIC        00000013             19
r0x1084                           STATIC        00000015             21
r0x1085                           STATIC        00000014             20
r0x1086                           STATIC        00000016             22
r0x1089                           STATIC        00000017             23
r0x1090                           STATIC        00000004              4
r0x1091                           STATIC        00000005              5
r0x1092                           STATIC        00000006              6

Errors   :     0
Warnings :     0 reported,     0 suppressed
Messages :     0 reported,     0 suppressed

